
build/kernel/kernel:     file format elf64-littleaarch64

Sections:
Idx Name          Size      VMA               LMA               File off  Algn
  0 .text         0000dd6c  ffff000000080000  ffff000000080000  00010000  2**12
                  CONTENTS, ALLOC, LOAD, READONLY, CODE
  1 .rodata       0000113d  ffff00000008dd70  ffff00000008dd70  0001dd70  2**3 1140
                  CONTENTS, ALLOC, LOAD, READONLY, DATA
  2 .eh_frame     00000ea8  ffff00000008eeb0  ffff00000008eeb0  0001eeb0  2**3 EB0
                  CONTENTS, ALLOC, LOAD, READONLY, DATA
  3 .data         0000020a  ffff00000008fd60  ffff00000008fd60  0001fd60  2**3 210
                  CONTENTS, ALLOC, LOAD, DATA
  4 .got          00000020  ffff00000008ff70  ffff00000008ff70  0001ff70  2**3 20
                  CONTENTS, ALLOC, LOAD, DATA
  5 .got.plt      00000018  ffff00000008ff90  ffff00000008ff90  0001ff90  2**3
                  CONTENTS, ALLOC, LOAD, DATA
  6 .bss          0000a468  ffff00000008ffb0  ffff00000008ffb0  0001ffa8  2**4
                  ALLOC
  7 .reserved_mem 03200000  ffff00000009a420  ffff00000009a420  0001ffa8  2**0
                  ALLOC
  8 .comment      00000026  0000000000000000  0000000000000000  0001ffa8  2**0
                  CONTENTS, READONLY

Disassembly of section .text:

ffff000000080000 <start>:
ffff000000080000:	d53800a0 	mrs	x0, mpidr_el1
ffff000000080004:	92400400 	and	x0, x0, #0x3
ffff000000080008:	f100001f 	cmp	x0, #0x0
ffff00000008000c:	54000040 	b.eq	ffff000000080014 <kernel_entry>  // b.none

ffff000000080010 <end>:
ffff000000080010:	14000000 	b	ffff000000080010 <end>

ffff000000080014 <kernel_entry>:
ffff000000080014:	d5384240 	mrs	x0, currentel
ffff000000080018:	d342fc00 	lsr	x0, x0, #2
ffff00000008001c:	f100081f 	cmp	x0, #0x2
ffff000000080020:	54ffff81 	b.ne	ffff000000080010 <end>  // b.any
ffff000000080024:	d518101f 	msr	sctlr_el1, xzr
ffff000000080028:	d2b00000 	mov	x0, #0x80000000            	// #2147483648
ffff00000008002c:	d51c1100 	msr	hcr_el2, x0
ffff000000080030:	d28078a0 	mov	x0, #0x3c5                 	// #965
ffff000000080034:	d51c4000 	msr	spsr_el2, x0
ffff000000080038:	10000060 	adr	x0, ffff000000080044 <el1_entry>
ffff00000008003c:	d51c4020 	msr	elr_el2, x0
ffff000000080040:	d69f03e0 	eret

ffff000000080044 <el1_entry>:
ffff000000080044:	b26d03ff 	mov	sp, #0x80000               	// #524288
ffff000000080048:	94000801 	bl	ffff00000008204c <setup_vm>
ffff00000008004c:	940007f4 	bl	ffff00000008201c <enable_mmu>
ffff000000080050:	58000240 	ldr	x0, ffff000000080098 <halt+0xc>
ffff000000080054:	58000261 	ldr	x1, ffff0000000800a0 <halt+0x14>
ffff000000080058:	58000282 	ldr	x2, ffff0000000800a8 <halt+0x1c>
ffff00000008005c:	94000038 	bl	ffff00000008013c <memcpy>
ffff000000080060:	58000200 	ldr	x0, ffff0000000800a0 <halt+0x14>
ffff000000080064:	58000261 	ldr	x1, ffff0000000800b0 <halt+0x24>
ffff000000080068:	cb000022 	sub	x2, x1, x0
ffff00000008006c:	d2800001 	mov	x1, #0x0                   	// #0
ffff000000080070:	94000022 	bl	ffff0000000800f8 <memset>
ffff000000080074:	58000220 	ldr	x0, ffff0000000800b8 <halt+0x2c>
ffff000000080078:	d518c000 	msr	vbar_el1, x0
ffff00000008007c:	d2ffffe0 	mov	x0, #0xffff000000000000    	// #-281474976710656
ffff000000080080:	8b2063ff 	add	sp, sp, x0
ffff000000080084:	580001e0 	ldr	x0, ffff0000000800c0 <halt+0x34>
ffff000000080088:	d63f0000 	blr	x0

ffff00000008008c <halt>:
ffff00000008008c:	d503207f 	wfi
ffff000000080090:	17ffffff 	b	ffff00000008008c <halt>
ffff000000080094:	00000000 	udf	#0
ffff000000080098:	30000000 	.word	0x30000000
ffff00000008009c:	ffff0000 	.word	0xffff0000
ffff0000000800a0:	0008ffb0 	.word	0x0008ffb0
ffff0000000800a4:	ffff0000 	.word	0xffff0000
ffff0000000800a8:	031b6000 	.word	0x031b6000
ffff0000000800ac:	00000000 	.word	0x00000000
ffff0000000800b0:	0009a418 	.word	0x0009a418
ffff0000000800b4:	ffff0000 	.word	0xffff0000
ffff0000000800b8:	00081000 	.word	0x00081000
ffff0000000800bc:	ffff0000 	.word	0xffff0000
ffff0000000800c0:	000800c8 	.word	0x000800c8
ffff0000000800c4:	ffff0000 	.word	0xffff0000

ffff0000000800c8 <KMain>:
ffff0000000800c8:	d503201f 	nop
ffff0000000800cc:	d65f03c0 	ret

ffff0000000800d0 <get_el>:
ffff0000000800d0:	d5384240 	mrs	x0, currentel
ffff0000000800d4:	d342fc00 	lsr	x0, x0, #2
ffff0000000800d8:	d65f03c0 	ret

ffff0000000800dc <delay>:
ffff0000000800dc:	f1000400 	subs	x0, x0, #0x1
ffff0000000800e0:	54ffffe1 	b.ne	ffff0000000800dc <delay>  // b.any
ffff0000000800e4:	d65f03c0 	ret

ffff0000000800e8 <out_word>:
ffff0000000800e8:	b9000001 	str	w1, [x0]
ffff0000000800ec:	d65f03c0 	ret

ffff0000000800f0 <in_word>:
ffff0000000800f0:	b9400000 	ldr	w0, [x0]
ffff0000000800f4:	d65f03c0 	ret

ffff0000000800f8 <memset>:
ffff0000000800f8:	f100005f 	cmp	x2, #0x0
ffff0000000800fc:	54000080 	b.eq	ffff00000008010c <memset_end>  // b.none

ffff000000080100 <set>:
ffff000000080100:	38001401 	strb	w1, [x0], #1
ffff000000080104:	f1000442 	subs	x2, x2, #0x1
ffff000000080108:	54ffffc1 	b.ne	ffff000000080100 <set>  // b.any

ffff00000008010c <memset_end>:
ffff00000008010c:	d65f03c0 	ret

ffff000000080110 <memcmp>:
ffff000000080110:	aa0003e3 	mov	x3, x0
ffff000000080114:	d2800000 	mov	x0, #0x0                   	// #0

ffff000000080118 <compare>:
ffff000000080118:	f100005f 	cmp	x2, #0x0
ffff00000008011c:	540000e0 	b.eq	ffff000000080138 <memcmp_end>  // b.none
ffff000000080120:	38401464 	ldrb	w4, [x3], #1
ffff000000080124:	38401425 	ldrb	w5, [x1], #1
ffff000000080128:	d1000442 	sub	x2, x2, #0x1
ffff00000008012c:	6b05009f 	cmp	w4, w5
ffff000000080130:	54ffff40 	b.eq	ffff000000080118 <compare>  // b.none
ffff000000080134:	d2800020 	mov	x0, #0x1                   	// #1

ffff000000080138 <memcmp_end>:
ffff000000080138:	d65f03c0 	ret

ffff00000008013c <memcpy>:
ffff00000008013c:	f100005f 	cmp	x2, #0x0
ffff000000080140:	54000220 	b.eq	ffff000000080184 <memcpy_end>  // b.none
ffff000000080144:	d2800024 	mov	x4, #0x1                   	// #1
ffff000000080148:	eb00003f 	cmp	x1, x0
ffff00000008014c:	54000102 	b.cs	ffff00000008016c <copy>  // b.hs, b.nlast
ffff000000080150:	8b020023 	add	x3, x1, x2
ffff000000080154:	eb00007f 	cmp	x3, x0
ffff000000080158:	540000a9 	b.ls	ffff00000008016c <copy>  // b.plast

ffff00000008015c <overlap>:
ffff00000008015c:	d1000443 	sub	x3, x2, #0x1
ffff000000080160:	8b030000 	add	x0, x0, x3
ffff000000080164:	8b030021 	add	x1, x1, x3
ffff000000080168:	cb0403e4 	neg	x4, x4

ffff00000008016c <copy>:
ffff00000008016c:	39400023 	ldrb	w3, [x1]
ffff000000080170:	39000003 	strb	w3, [x0]
ffff000000080174:	8b040000 	add	x0, x0, x4
ffff000000080178:	8b040021 	add	x1, x1, x4
ffff00000008017c:	f1000442 	subs	x2, x2, #0x1
ffff000000080180:	54ffff61 	b.ne	ffff00000008016c <copy>  // b.any

ffff000000080184 <memcpy_end>:
ffff000000080184:	d65f03c0 	ret

ffff000000080188 <write_char>:
ffff000000080188:	a9be7bfd 	stp	x29, x30, [sp, #-32]!
ffff00000008018c:	910003fd 	mov	x29, sp
ffff000000080190:	39007fe0 	strb	w0, [sp, #31]
ffff000000080194:	d503201f 	nop
ffff000000080198:	d2820300 	mov	x0, #0x1018                	// #4120
ffff00000008019c:	f2a7e400 	movk	x0, #0x3f20, lsl #16
ffff0000000801a0:	f2ffffe0 	movk	x0, #0xffff, lsl #48
ffff0000000801a4:	97ffffd3 	bl	ffff0000000800f0 <in_word>
ffff0000000801a8:	121d0000 	and	w0, w0, #0x8
ffff0000000801ac:	7100001f 	cmp	w0, #0x0
ffff0000000801b0:	54ffff41 	b.ne	ffff000000080198 <write_char+0x10>  // b.any
ffff0000000801b4:	39407fe0 	ldrb	w0, [sp, #31]
ffff0000000801b8:	2a0003e1 	mov	w1, w0
ffff0000000801bc:	d2820000 	mov	x0, #0x1000                	// #4096
ffff0000000801c0:	f2a7e400 	movk	x0, #0x3f20, lsl #16
ffff0000000801c4:	f2ffffe0 	movk	x0, #0xffff, lsl #48
ffff0000000801c8:	97ffffc8 	bl	ffff0000000800e8 <out_word>
ffff0000000801cc:	d503201f 	nop
ffff0000000801d0:	a8c27bfd 	ldp	x29, x30, [sp], #32
ffff0000000801d4:	d65f03c0 	ret

ffff0000000801d8 <read_char>:
ffff0000000801d8:	a9bf7bfd 	stp	x29, x30, [sp, #-16]!
ffff0000000801dc:	910003fd 	mov	x29, sp
ffff0000000801e0:	d2820000 	mov	x0, #0x1000                	// #4096
ffff0000000801e4:	f2a7e400 	movk	x0, #0x3f20, lsl #16
ffff0000000801e8:	f2ffffe0 	movk	x0, #0xffff, lsl #48
ffff0000000801ec:	97ffffc1 	bl	ffff0000000800f0 <in_word>
ffff0000000801f0:	12001c00 	and	w0, w0, #0xff
ffff0000000801f4:	a8c17bfd 	ldp	x29, x30, [sp], #16
ffff0000000801f8:	d65f03c0 	ret

ffff0000000801fc <write_string>:
ffff0000000801fc:	a9bd7bfd 	stp	x29, x30, [sp, #-48]!
ffff000000080200:	910003fd 	mov	x29, sp
ffff000000080204:	f9000fe0 	str	x0, [sp, #24]
ffff000000080208:	b9002fff 	str	wzr, [sp, #44]
ffff00000008020c:	14000009 	b	ffff000000080230 <write_string+0x34>
ffff000000080210:	b9802fe0 	ldrsw	x0, [sp, #44]
ffff000000080214:	f9400fe1 	ldr	x1, [sp, #24]
ffff000000080218:	8b000020 	add	x0, x1, x0
ffff00000008021c:	39400000 	ldrb	w0, [x0]
ffff000000080220:	97ffffda 	bl	ffff000000080188 <write_char>
ffff000000080224:	b9402fe0 	ldr	w0, [sp, #44]
ffff000000080228:	11000400 	add	w0, w0, #0x1
ffff00000008022c:	b9002fe0 	str	w0, [sp, #44]
ffff000000080230:	b9802fe0 	ldrsw	x0, [sp, #44]
ffff000000080234:	f9400fe1 	ldr	x1, [sp, #24]
ffff000000080238:	8b000020 	add	x0, x1, x0
ffff00000008023c:	39400000 	ldrb	w0, [x0]
ffff000000080240:	7100001f 	cmp	w0, #0x0
ffff000000080244:	54fffe61 	b.ne	ffff000000080210 <write_string+0x14>  // b.any
ffff000000080248:	d503201f 	nop
ffff00000008024c:	d503201f 	nop
ffff000000080250:	a8c37bfd 	ldp	x29, x30, [sp], #48
ffff000000080254:	d65f03c0 	ret

ffff000000080258 <uart_handler>:
ffff000000080258:	a9be7bfd 	stp	x29, x30, [sp, #-32]!
ffff00000008025c:	910003fd 	mov	x29, sp
ffff000000080260:	d2820800 	mov	x0, #0x1040                	// #4160
ffff000000080264:	f2a7e400 	movk	x0, #0x3f20, lsl #16
ffff000000080268:	f2ffffe0 	movk	x0, #0xffff, lsl #48
ffff00000008026c:	97ffffa1 	bl	ffff0000000800f0 <in_word>
ffff000000080270:	b9001fe0 	str	w0, [sp, #28]
ffff000000080274:	b9401fe0 	ldr	w0, [sp, #28]
ffff000000080278:	121c0000 	and	w0, w0, #0x10
ffff00000008027c:	7100001f 	cmp	w0, #0x0
ffff000000080280:	540000e0 	b.eq	ffff00000008029c <uart_handler+0x44>  // b.none
ffff000000080284:	940031ce 	bl	ffff00000008c9bc <keyboard_handler>
ffff000000080288:	52800201 	mov	w1, #0x10                  	// #16
ffff00000008028c:	d2820880 	mov	x0, #0x1044                	// #4164
ffff000000080290:	f2a7e400 	movk	x0, #0x3f20, lsl #16
ffff000000080294:	f2ffffe0 	movk	x0, #0xffff, lsl #48
ffff000000080298:	97ffff94 	bl	ffff0000000800e8 <out_word>
ffff00000008029c:	d503201f 	nop
ffff0000000802a0:	a8c27bfd 	ldp	x29, x30, [sp], #32
ffff0000000802a4:	d65f03c0 	ret

ffff0000000802a8 <init_uart>:
ffff0000000802a8:	a9bf7bfd 	stp	x29, x30, [sp, #-16]!
ffff0000000802ac:	910003fd 	mov	x29, sp
ffff0000000802b0:	52800001 	mov	w1, #0x0                   	// #0
ffff0000000802b4:	d2820600 	mov	x0, #0x1030                	// #4144
ffff0000000802b8:	f2a7e400 	movk	x0, #0x3f20, lsl #16
ffff0000000802bc:	f2ffffe0 	movk	x0, #0xffff, lsl #48
ffff0000000802c0:	97ffff8a 	bl	ffff0000000800e8 <out_word>
ffff0000000802c4:	52800341 	mov	w1, #0x1a                  	// #26
ffff0000000802c8:	d2820480 	mov	x0, #0x1024                	// #4132
ffff0000000802cc:	f2a7e400 	movk	x0, #0x3f20, lsl #16
ffff0000000802d0:	f2ffffe0 	movk	x0, #0xffff, lsl #48
ffff0000000802d4:	97ffff85 	bl	ffff0000000800e8 <out_word>
ffff0000000802d8:	52800001 	mov	w1, #0x0                   	// #0
ffff0000000802dc:	d2820500 	mov	x0, #0x1028                	// #4136
ffff0000000802e0:	f2a7e400 	movk	x0, #0x3f20, lsl #16
ffff0000000802e4:	f2ffffe0 	movk	x0, #0xffff, lsl #48
ffff0000000802e8:	97ffff80 	bl	ffff0000000800e8 <out_word>
ffff0000000802ec:	52800c01 	mov	w1, #0x60                  	// #96
ffff0000000802f0:	d2820580 	mov	x0, #0x102c                	// #4140
ffff0000000802f4:	f2a7e400 	movk	x0, #0x3f20, lsl #16
ffff0000000802f8:	f2ffffe0 	movk	x0, #0xffff, lsl #48
ffff0000000802fc:	97ffff7b 	bl	ffff0000000800e8 <out_word>
ffff000000080300:	52800201 	mov	w1, #0x10                  	// #16
ffff000000080304:	d2820700 	mov	x0, #0x1038                	// #4152
ffff000000080308:	f2a7e400 	movk	x0, #0x3f20, lsl #16
ffff00000008030c:	f2ffffe0 	movk	x0, #0xffff, lsl #48
ffff000000080310:	97ffff76 	bl	ffff0000000800e8 <out_word>
ffff000000080314:	52806021 	mov	w1, #0x301                 	// #769
ffff000000080318:	d2820600 	mov	x0, #0x1030                	// #4144
ffff00000008031c:	f2a7e400 	movk	x0, #0x3f20, lsl #16
ffff000000080320:	f2ffffe0 	movk	x0, #0xffff, lsl #48
ffff000000080324:	97ffff71 	bl	ffff0000000800e8 <out_word>
ffff000000080328:	d503201f 	nop
ffff00000008032c:	a8c17bfd 	ldp	x29, x30, [sp], #16
ffff000000080330:	d65f03c0 	ret

ffff000000080334 <read_string>:
ffff000000080334:	d100c3ff 	sub	sp, sp, #0x30
ffff000000080338:	f9000fe0 	str	x0, [sp, #24]
ffff00000008033c:	b90017e1 	str	w1, [sp, #20]
ffff000000080340:	f90007e2 	str	x2, [sp, #8]
ffff000000080344:	b9002fff 	str	wzr, [sp, #44]
ffff000000080348:	b9002fff 	str	wzr, [sp, #44]
ffff00000008034c:	1400000f 	b	ffff000000080388 <read_string+0x54>
ffff000000080350:	b9802fe0 	ldrsw	x0, [sp, #44]
ffff000000080354:	f94007e1 	ldr	x1, [sp, #8]
ffff000000080358:	8b000021 	add	x1, x1, x0
ffff00000008035c:	b94017e0 	ldr	w0, [sp, #20]
ffff000000080360:	11000402 	add	w2, w0, #0x1
ffff000000080364:	b90017e2 	str	w2, [sp, #20]
ffff000000080368:	93407c00 	sxtw	x0, w0
ffff00000008036c:	f9400fe2 	ldr	x2, [sp, #24]
ffff000000080370:	8b000040 	add	x0, x2, x0
ffff000000080374:	39400021 	ldrb	w1, [x1]
ffff000000080378:	39000001 	strb	w1, [x0]
ffff00000008037c:	b9402fe0 	ldr	w0, [sp, #44]
ffff000000080380:	11000400 	add	w0, w0, #0x1
ffff000000080384:	b9002fe0 	str	w0, [sp, #44]
ffff000000080388:	b9802fe0 	ldrsw	x0, [sp, #44]
ffff00000008038c:	f94007e1 	ldr	x1, [sp, #8]
ffff000000080390:	8b000020 	add	x0, x1, x0
ffff000000080394:	39400000 	ldrb	w0, [x0]
ffff000000080398:	7100001f 	cmp	w0, #0x0
ffff00000008039c:	54fffda1 	b.ne	ffff000000080350 <read_string+0x1c>  // b.any
ffff0000000803a0:	b9402fe0 	ldr	w0, [sp, #44]
ffff0000000803a4:	9100c3ff 	add	sp, sp, #0x30
ffff0000000803a8:	d65f03c0 	ret

ffff0000000803ac <hex_to_string>:
ffff0000000803ac:	d10183ff 	sub	sp, sp, #0x60
ffff0000000803b0:	f9000fe0 	str	x0, [sp, #24]
ffff0000000803b4:	b90017e1 	str	w1, [sp, #20]
ffff0000000803b8:	f90007e2 	str	x2, [sp, #8]
ffff0000000803bc:	b0000060 	adrp	x0, ffff00000008d000 <video_set_resolution+0x1fc>
ffff0000000803c0:	9135c000 	add	x0, x0, #0xd70
ffff0000000803c4:	a9400400 	ldp	x0, x1, [x0]
ffff0000000803c8:	a90287e0 	stp	x0, x1, [sp, #40]
ffff0000000803cc:	b9005fff 	str	wzr, [sp, #92]
ffff0000000803d0:	f94007e0 	ldr	x0, [sp, #8]
ffff0000000803d4:	92400c01 	and	x1, x0, #0xf
ffff0000000803d8:	b9405fe0 	ldr	w0, [sp, #92]
ffff0000000803dc:	11000402 	add	w2, w0, #0x1
ffff0000000803e0:	b9005fe2 	str	w2, [sp, #92]
ffff0000000803e4:	9100a3e2 	add	x2, sp, #0x28
ffff0000000803e8:	38616842 	ldrb	w2, [x2, x1]
ffff0000000803ec:	93407c00 	sxtw	x0, w0
ffff0000000803f0:	9100e3e1 	add	x1, sp, #0x38
ffff0000000803f4:	38206822 	strb	w2, [x1, x0]
ffff0000000803f8:	f94007e0 	ldr	x0, [sp, #8]
ffff0000000803fc:	d344fc00 	lsr	x0, x0, #4
ffff000000080400:	f90007e0 	str	x0, [sp, #8]
ffff000000080404:	f94007e0 	ldr	x0, [sp, #8]
ffff000000080408:	f100001f 	cmp	x0, #0x0
ffff00000008040c:	54fffe21 	b.ne	ffff0000000803d0 <hex_to_string+0x24>  // b.any
ffff000000080410:	b9405fe0 	ldr	w0, [sp, #92]
ffff000000080414:	51000400 	sub	w0, w0, #0x1
ffff000000080418:	b9005be0 	str	w0, [sp, #88]
ffff00000008041c:	1400000e 	b	ffff000000080454 <hex_to_string+0xa8>
ffff000000080420:	b94017e0 	ldr	w0, [sp, #20]
ffff000000080424:	11000401 	add	w1, w0, #0x1
ffff000000080428:	b90017e1 	str	w1, [sp, #20]
ffff00000008042c:	93407c00 	sxtw	x0, w0
ffff000000080430:	f9400fe1 	ldr	x1, [sp, #24]
ffff000000080434:	8b000020 	add	x0, x1, x0
ffff000000080438:	b9805be1 	ldrsw	x1, [sp, #88]
ffff00000008043c:	9100e3e2 	add	x2, sp, #0x38
ffff000000080440:	38616841 	ldrb	w1, [x2, x1]
ffff000000080444:	39000001 	strb	w1, [x0]
ffff000000080448:	b9405be0 	ldr	w0, [sp, #88]
ffff00000008044c:	51000400 	sub	w0, w0, #0x1
ffff000000080450:	b9005be0 	str	w0, [sp, #88]
ffff000000080454:	b9405be0 	ldr	w0, [sp, #88]
ffff000000080458:	7100001f 	cmp	w0, #0x0
ffff00000008045c:	54fffe2a 	b.ge	ffff000000080420 <hex_to_string+0x74>  // b.tcont
ffff000000080460:	b94017e0 	ldr	w0, [sp, #20]
ffff000000080464:	11000401 	add	w1, w0, #0x1
ffff000000080468:	b90017e1 	str	w1, [sp, #20]
ffff00000008046c:	93407c00 	sxtw	x0, w0
ffff000000080470:	f9400fe1 	ldr	x1, [sp, #24]
ffff000000080474:	8b000020 	add	x0, x1, x0
ffff000000080478:	52800901 	mov	w1, #0x48                  	// #72
ffff00000008047c:	39000001 	strb	w1, [x0]
ffff000000080480:	b9405fe0 	ldr	w0, [sp, #92]
ffff000000080484:	11000400 	add	w0, w0, #0x1
ffff000000080488:	910183ff 	add	sp, sp, #0x60
ffff00000008048c:	d65f03c0 	ret

ffff000000080490 <udecimal_to_string>:
ffff000000080490:	d10183ff 	sub	sp, sp, #0x60
ffff000000080494:	f9000fe0 	str	x0, [sp, #24]
ffff000000080498:	b90017e1 	str	w1, [sp, #20]
ffff00000008049c:	f90007e2 	str	x2, [sp, #8]
ffff0000000804a0:	b0000060 	adrp	x0, ffff00000008d000 <video_set_resolution+0x1fc>
ffff0000000804a4:	91360001 	add	x1, x0, #0xd80
ffff0000000804a8:	910123e0 	add	x0, sp, #0x48
ffff0000000804ac:	f9400022 	ldr	x2, [x1]
ffff0000000804b0:	f9000002 	str	x2, [x0]
ffff0000000804b4:	79401021 	ldrh	w1, [x1, #8]
ffff0000000804b8:	79001001 	strh	w1, [x0, #8]
ffff0000000804bc:	b9005fff 	str	wzr, [sp, #92]
ffff0000000804c0:	f94007e2 	ldr	x2, [sp, #8]
ffff0000000804c4:	b202e7e0 	mov	x0, #0xcccccccccccccccc    	// #-3689348814741910324
ffff0000000804c8:	f29999a0 	movk	x0, #0xcccd
ffff0000000804cc:	9bc07c40 	umulh	x0, x2, x0
ffff0000000804d0:	d343fc01 	lsr	x1, x0, #3
ffff0000000804d4:	aa0103e0 	mov	x0, x1
ffff0000000804d8:	d37ef400 	lsl	x0, x0, #2
ffff0000000804dc:	8b010000 	add	x0, x0, x1
ffff0000000804e0:	d37ff800 	lsl	x0, x0, #1
ffff0000000804e4:	cb000041 	sub	x1, x2, x0
ffff0000000804e8:	b9405fe0 	ldr	w0, [sp, #92]
ffff0000000804ec:	11000402 	add	w2, w0, #0x1
ffff0000000804f0:	b9005fe2 	str	w2, [sp, #92]
ffff0000000804f4:	910123e2 	add	x2, sp, #0x48
ffff0000000804f8:	38616842 	ldrb	w2, [x2, x1]
ffff0000000804fc:	93407c00 	sxtw	x0, w0
ffff000000080500:	9100a3e1 	add	x1, sp, #0x28
ffff000000080504:	38206822 	strb	w2, [x1, x0]
ffff000000080508:	f94007e1 	ldr	x1, [sp, #8]
ffff00000008050c:	b202e7e0 	mov	x0, #0xcccccccccccccccc    	// #-3689348814741910324
ffff000000080510:	f29999a0 	movk	x0, #0xcccd
ffff000000080514:	9bc07c20 	umulh	x0, x1, x0
ffff000000080518:	d343fc00 	lsr	x0, x0, #3
ffff00000008051c:	f90007e0 	str	x0, [sp, #8]
ffff000000080520:	f94007e0 	ldr	x0, [sp, #8]
ffff000000080524:	f100001f 	cmp	x0, #0x0
ffff000000080528:	54fffcc1 	b.ne	ffff0000000804c0 <udecimal_to_string+0x30>  // b.any
ffff00000008052c:	b9405fe0 	ldr	w0, [sp, #92]
ffff000000080530:	51000400 	sub	w0, w0, #0x1
ffff000000080534:	b9005be0 	str	w0, [sp, #88]
ffff000000080538:	1400000e 	b	ffff000000080570 <udecimal_to_string+0xe0>
ffff00000008053c:	b94017e0 	ldr	w0, [sp, #20]
ffff000000080540:	11000401 	add	w1, w0, #0x1
ffff000000080544:	b90017e1 	str	w1, [sp, #20]
ffff000000080548:	93407c00 	sxtw	x0, w0
ffff00000008054c:	f9400fe1 	ldr	x1, [sp, #24]
ffff000000080550:	8b000020 	add	x0, x1, x0
ffff000000080554:	b9805be1 	ldrsw	x1, [sp, #88]
ffff000000080558:	9100a3e2 	add	x2, sp, #0x28
ffff00000008055c:	38616841 	ldrb	w1, [x2, x1]
ffff000000080560:	39000001 	strb	w1, [x0]
ffff000000080564:	b9405be0 	ldr	w0, [sp, #88]
ffff000000080568:	51000400 	sub	w0, w0, #0x1
ffff00000008056c:	b9005be0 	str	w0, [sp, #88]
ffff000000080570:	b9405be0 	ldr	w0, [sp, #88]
ffff000000080574:	7100001f 	cmp	w0, #0x0
ffff000000080578:	54fffe2a 	b.ge	ffff00000008053c <udecimal_to_string+0xac>  // b.tcont
ffff00000008057c:	b9405fe0 	ldr	w0, [sp, #92]
ffff000000080580:	910183ff 	add	sp, sp, #0x60
ffff000000080584:	d65f03c0 	ret

ffff000000080588 <decimal_to_string>:
ffff000000080588:	a9bc7bfd 	stp	x29, x30, [sp, #-64]!
ffff00000008058c:	910003fd 	mov	x29, sp
ffff000000080590:	f90017e0 	str	x0, [sp, #40]
ffff000000080594:	b90027e1 	str	w1, [sp, #36]
ffff000000080598:	f9000fe2 	str	x2, [sp, #24]
ffff00000008059c:	b9003fff 	str	wzr, [sp, #60]
ffff0000000805a0:	f9400fe0 	ldr	x0, [sp, #24]
ffff0000000805a4:	f100001f 	cmp	x0, #0x0
ffff0000000805a8:	540001ca 	b.ge	ffff0000000805e0 <decimal_to_string+0x58>  // b.tcont
ffff0000000805ac:	f9400fe0 	ldr	x0, [sp, #24]
ffff0000000805b0:	cb0003e0 	neg	x0, x0
ffff0000000805b4:	f9000fe0 	str	x0, [sp, #24]
ffff0000000805b8:	b94027e0 	ldr	w0, [sp, #36]
ffff0000000805bc:	11000401 	add	w1, w0, #0x1
ffff0000000805c0:	b90027e1 	str	w1, [sp, #36]
ffff0000000805c4:	93407c00 	sxtw	x0, w0
ffff0000000805c8:	f94017e1 	ldr	x1, [sp, #40]
ffff0000000805cc:	8b000020 	add	x0, x1, x0
ffff0000000805d0:	528005a1 	mov	w1, #0x2d                  	// #45
ffff0000000805d4:	39000001 	strb	w1, [x0]
ffff0000000805d8:	52800020 	mov	w0, #0x1                   	// #1
ffff0000000805dc:	b9003fe0 	str	w0, [sp, #60]
ffff0000000805e0:	f9400fe0 	ldr	x0, [sp, #24]
ffff0000000805e4:	aa0003e2 	mov	x2, x0
ffff0000000805e8:	b94027e1 	ldr	w1, [sp, #36]
ffff0000000805ec:	f94017e0 	ldr	x0, [sp, #40]
ffff0000000805f0:	97ffffa8 	bl	ffff000000080490 <udecimal_to_string>
ffff0000000805f4:	2a0003e1 	mov	w1, w0
ffff0000000805f8:	b9403fe0 	ldr	w0, [sp, #60]
ffff0000000805fc:	0b010000 	add	w0, w0, w1
ffff000000080600:	b9003fe0 	str	w0, [sp, #60]
ffff000000080604:	b9403fe0 	ldr	w0, [sp, #60]
ffff000000080608:	a8c47bfd 	ldp	x29, x30, [sp], #64
ffff00000008060c:	d65f03c0 	ret

ffff000000080610 <write_console>:
ffff000000080610:	a9bd7bfd 	stp	x29, x30, [sp, #-48]!
ffff000000080614:	910003fd 	mov	x29, sp
ffff000000080618:	f9000fe0 	str	x0, [sp, #24]
ffff00000008061c:	b90017e1 	str	w1, [sp, #20]
ffff000000080620:	b9002fff 	str	wzr, [sp, #44]
ffff000000080624:	14000009 	b	ffff000000080648 <write_console+0x38>
ffff000000080628:	b9802fe0 	ldrsw	x0, [sp, #44]
ffff00000008062c:	f9400fe1 	ldr	x1, [sp, #24]
ffff000000080630:	8b000020 	add	x0, x1, x0
ffff000000080634:	39400000 	ldrb	w0, [x0]
ffff000000080638:	97fffed4 	bl	ffff000000080188 <write_char>
ffff00000008063c:	b9402fe0 	ldr	w0, [sp, #44]
ffff000000080640:	11000400 	add	w0, w0, #0x1
ffff000000080644:	b9002fe0 	str	w0, [sp, #44]
ffff000000080648:	b9402fe1 	ldr	w1, [sp, #44]
ffff00000008064c:	b94017e0 	ldr	w0, [sp, #20]
ffff000000080650:	6b00003f 	cmp	w1, w0
ffff000000080654:	54fffeab 	b.lt	ffff000000080628 <write_console+0x18>  // b.tstop
ffff000000080658:	d503201f 	nop
ffff00000008065c:	d503201f 	nop
ffff000000080660:	a8c37bfd 	ldp	x29, x30, [sp], #48
ffff000000080664:	d65f03c0 	ret

ffff000000080668 <printk>:
ffff000000080668:	d11283ff 	sub	sp, sp, #0x4a0
ffff00000008066c:	a9007bfd 	stp	x29, x30, [sp]
ffff000000080670:	910003fd 	mov	x29, sp
ffff000000080674:	f9000fe0 	str	x0, [sp, #24]
ffff000000080678:	f90237e1 	str	x1, [sp, #1128]
ffff00000008067c:	f9023be2 	str	x2, [sp, #1136]
ffff000000080680:	f9023fe3 	str	x3, [sp, #1144]
ffff000000080684:	f90243e4 	str	x4, [sp, #1152]
ffff000000080688:	f90247e5 	str	x5, [sp, #1160]
ffff00000008068c:	f9024be6 	str	x6, [sp, #1168]
ffff000000080690:	f9024fe7 	str	x7, [sp, #1176]
ffff000000080694:	b9045fff 	str	wzr, [sp, #1116]
ffff000000080698:	f9022bff 	str	xzr, [sp, #1104]
ffff00000008069c:	f90227ff 	str	xzr, [sp, #1096]
ffff0000000806a0:	911283e0 	add	x0, sp, #0x4a0
ffff0000000806a4:	f90017e0 	str	x0, [sp, #40]
ffff0000000806a8:	911283e0 	add	x0, sp, #0x4a0
ffff0000000806ac:	f9001be0 	str	x0, [sp, #48]
ffff0000000806b0:	911183e0 	add	x0, sp, #0x460
ffff0000000806b4:	f9001fe0 	str	x0, [sp, #56]
ffff0000000806b8:	128006e0 	mov	w0, #0xffffffc8            	// #-56
ffff0000000806bc:	b90043e0 	str	w0, [sp, #64]
ffff0000000806c0:	b90047ff 	str	wzr, [sp, #68]
ffff0000000806c4:	b9045bff 	str	wzr, [sp, #1112]
ffff0000000806c8:	140000b1 	b	ffff00000008098c <printk+0x324>
ffff0000000806cc:	b9845be0 	ldrsw	x0, [sp, #1112]
ffff0000000806d0:	f9400fe1 	ldr	x1, [sp, #24]
ffff0000000806d4:	8b000020 	add	x0, x1, x0
ffff0000000806d8:	39400000 	ldrb	w0, [x0]
ffff0000000806dc:	7100941f 	cmp	w0, #0x25
ffff0000000806e0:	54000180 	b.eq	ffff000000080710 <printk+0xa8>  // b.none
ffff0000000806e4:	b9845be0 	ldrsw	x0, [sp, #1112]
ffff0000000806e8:	f9400fe1 	ldr	x1, [sp, #24]
ffff0000000806ec:	8b000021 	add	x1, x1, x0
ffff0000000806f0:	b9445fe0 	ldr	w0, [sp, #1116]
ffff0000000806f4:	11000402 	add	w2, w0, #0x1
ffff0000000806f8:	b9045fe2 	str	w2, [sp, #1116]
ffff0000000806fc:	39400022 	ldrb	w2, [x1]
ffff000000080700:	93407c00 	sxtw	x0, w0
ffff000000080704:	910123e1 	add	x1, sp, #0x48
ffff000000080708:	38206822 	strb	w2, [x1, x0]
ffff00000008070c:	1400009d 	b	ffff000000080980 <printk+0x318>
ffff000000080710:	b9445be0 	ldr	w0, [sp, #1112]
ffff000000080714:	11000400 	add	w0, w0, #0x1
ffff000000080718:	b9045be0 	str	w0, [sp, #1112]
ffff00000008071c:	b9845be0 	ldrsw	x0, [sp, #1112]
ffff000000080720:	f9400fe1 	ldr	x1, [sp, #24]
ffff000000080724:	8b000020 	add	x0, x1, x0
ffff000000080728:	39400000 	ldrb	w0, [x0]
ffff00000008072c:	7101e01f 	cmp	w0, #0x78
ffff000000080730:	54000180 	b.eq	ffff000000080760 <printk+0xf8>  // b.none
ffff000000080734:	7101e01f 	cmp	w0, #0x78
ffff000000080738:	5400110c 	b.gt	ffff000000080958 <printk+0x2f0>
ffff00000008073c:	7101d41f 	cmp	w0, #0x75
ffff000000080740:	54000500 	b.eq	ffff0000000807e0 <printk+0x178>  // b.none
ffff000000080744:	7101d41f 	cmp	w0, #0x75
ffff000000080748:	5400108c 	b.gt	ffff000000080958 <printk+0x2f0>
ffff00000008074c:	7101901f 	cmp	w0, #0x64
ffff000000080750:	54000880 	b.eq	ffff000000080860 <printk+0x1f8>  // b.none
ffff000000080754:	7101cc1f 	cmp	w0, #0x73
ffff000000080758:	54000c20 	b.eq	ffff0000000808dc <printk+0x274>  // b.none
ffff00000008075c:	1400007f 	b	ffff000000080958 <printk+0x2f0>
ffff000000080760:	b94043e1 	ldr	w1, [sp, #64]
ffff000000080764:	f94017e0 	ldr	x0, [sp, #40]
ffff000000080768:	7100003f 	cmp	w1, #0x0
ffff00000008076c:	540000ab 	b.lt	ffff000000080780 <printk+0x118>  // b.tstop
ffff000000080770:	91003c01 	add	x1, x0, #0xf
ffff000000080774:	927df021 	and	x1, x1, #0xfffffffffffffff8
ffff000000080778:	f90017e1 	str	x1, [sp, #40]
ffff00000008077c:	1400000d 	b	ffff0000000807b0 <printk+0x148>
ffff000000080780:	11002022 	add	w2, w1, #0x8
ffff000000080784:	b90043e2 	str	w2, [sp, #64]
ffff000000080788:	b94043e2 	ldr	w2, [sp, #64]
ffff00000008078c:	7100005f 	cmp	w2, #0x0
ffff000000080790:	540000ad 	b.le	ffff0000000807a4 <printk+0x13c>
ffff000000080794:	91003c01 	add	x1, x0, #0xf
ffff000000080798:	927df021 	and	x1, x1, #0xfffffffffffffff8
ffff00000008079c:	f90017e1 	str	x1, [sp, #40]
ffff0000000807a0:	14000004 	b	ffff0000000807b0 <printk+0x148>
ffff0000000807a4:	f9401be2 	ldr	x2, [sp, #48]
ffff0000000807a8:	93407c20 	sxtw	x0, w1
ffff0000000807ac:	8b000040 	add	x0, x2, x0
ffff0000000807b0:	f9400000 	ldr	x0, [x0]
ffff0000000807b4:	f9022be0 	str	x0, [sp, #1104]
ffff0000000807b8:	f9422be1 	ldr	x1, [sp, #1104]
ffff0000000807bc:	910123e0 	add	x0, sp, #0x48
ffff0000000807c0:	aa0103e2 	mov	x2, x1
ffff0000000807c4:	b9445fe1 	ldr	w1, [sp, #1116]
ffff0000000807c8:	97fffef9 	bl	ffff0000000803ac <hex_to_string>
ffff0000000807cc:	2a0003e1 	mov	w1, w0
ffff0000000807d0:	b9445fe0 	ldr	w0, [sp, #1116]
ffff0000000807d4:	0b010000 	add	w0, w0, w1
ffff0000000807d8:	b9045fe0 	str	w0, [sp, #1116]
ffff0000000807dc:	14000069 	b	ffff000000080980 <printk+0x318>
ffff0000000807e0:	b94043e1 	ldr	w1, [sp, #64]
ffff0000000807e4:	f94017e0 	ldr	x0, [sp, #40]
ffff0000000807e8:	7100003f 	cmp	w1, #0x0
ffff0000000807ec:	540000ab 	b.lt	ffff000000080800 <printk+0x198>  // b.tstop
ffff0000000807f0:	91003c01 	add	x1, x0, #0xf
ffff0000000807f4:	927df021 	and	x1, x1, #0xfffffffffffffff8
ffff0000000807f8:	f90017e1 	str	x1, [sp, #40]
ffff0000000807fc:	1400000d 	b	ffff000000080830 <printk+0x1c8>
ffff000000080800:	11002022 	add	w2, w1, #0x8
ffff000000080804:	b90043e2 	str	w2, [sp, #64]
ffff000000080808:	b94043e2 	ldr	w2, [sp, #64]
ffff00000008080c:	7100005f 	cmp	w2, #0x0
ffff000000080810:	540000ad 	b.le	ffff000000080824 <printk+0x1bc>
ffff000000080814:	91003c01 	add	x1, x0, #0xf
ffff000000080818:	927df021 	and	x1, x1, #0xfffffffffffffff8
ffff00000008081c:	f90017e1 	str	x1, [sp, #40]
ffff000000080820:	14000004 	b	ffff000000080830 <printk+0x1c8>
ffff000000080824:	f9401be2 	ldr	x2, [sp, #48]
ffff000000080828:	93407c20 	sxtw	x0, w1
ffff00000008082c:	8b000040 	add	x0, x2, x0
ffff000000080830:	f9400000 	ldr	x0, [x0]
ffff000000080834:	f9022be0 	str	x0, [sp, #1104]
ffff000000080838:	f9422be1 	ldr	x1, [sp, #1104]
ffff00000008083c:	910123e0 	add	x0, sp, #0x48
ffff000000080840:	aa0103e2 	mov	x2, x1
ffff000000080844:	b9445fe1 	ldr	w1, [sp, #1116]
ffff000000080848:	97ffff12 	bl	ffff000000080490 <udecimal_to_string>
ffff00000008084c:	2a0003e1 	mov	w1, w0
ffff000000080850:	b9445fe0 	ldr	w0, [sp, #1116]
ffff000000080854:	0b010000 	add	w0, w0, w1
ffff000000080858:	b9045fe0 	str	w0, [sp, #1116]
ffff00000008085c:	14000049 	b	ffff000000080980 <printk+0x318>
ffff000000080860:	b94043e1 	ldr	w1, [sp, #64]
ffff000000080864:	f94017e0 	ldr	x0, [sp, #40]
ffff000000080868:	7100003f 	cmp	w1, #0x0
ffff00000008086c:	540000ab 	b.lt	ffff000000080880 <printk+0x218>  // b.tstop
ffff000000080870:	91003c01 	add	x1, x0, #0xf
ffff000000080874:	927df021 	and	x1, x1, #0xfffffffffffffff8
ffff000000080878:	f90017e1 	str	x1, [sp, #40]
ffff00000008087c:	1400000d 	b	ffff0000000808b0 <printk+0x248>
ffff000000080880:	11002022 	add	w2, w1, #0x8
ffff000000080884:	b90043e2 	str	w2, [sp, #64]
ffff000000080888:	b94043e2 	ldr	w2, [sp, #64]
ffff00000008088c:	7100005f 	cmp	w2, #0x0
ffff000000080890:	540000ad 	b.le	ffff0000000808a4 <printk+0x23c>
ffff000000080894:	91003c01 	add	x1, x0, #0xf
ffff000000080898:	927df021 	and	x1, x1, #0xfffffffffffffff8
ffff00000008089c:	f90017e1 	str	x1, [sp, #40]
ffff0000000808a0:	14000004 	b	ffff0000000808b0 <printk+0x248>
ffff0000000808a4:	f9401be2 	ldr	x2, [sp, #48]
ffff0000000808a8:	93407c20 	sxtw	x0, w1
ffff0000000808ac:	8b000040 	add	x0, x2, x0
ffff0000000808b0:	f9400000 	ldr	x0, [x0]
ffff0000000808b4:	f9022be0 	str	x0, [sp, #1104]
ffff0000000808b8:	910123e0 	add	x0, sp, #0x48
ffff0000000808bc:	f9422be2 	ldr	x2, [sp, #1104]
ffff0000000808c0:	b9445fe1 	ldr	w1, [sp, #1116]
ffff0000000808c4:	97ffff31 	bl	ffff000000080588 <decimal_to_string>
ffff0000000808c8:	2a0003e1 	mov	w1, w0
ffff0000000808cc:	b9445fe0 	ldr	w0, [sp, #1116]
ffff0000000808d0:	0b010000 	add	w0, w0, w1
ffff0000000808d4:	b9045fe0 	str	w0, [sp, #1116]
ffff0000000808d8:	1400002a 	b	ffff000000080980 <printk+0x318>
ffff0000000808dc:	b94043e1 	ldr	w1, [sp, #64]
ffff0000000808e0:	f94017e0 	ldr	x0, [sp, #40]
ffff0000000808e4:	7100003f 	cmp	w1, #0x0
ffff0000000808e8:	540000ab 	b.lt	ffff0000000808fc <printk+0x294>  // b.tstop
ffff0000000808ec:	91003c01 	add	x1, x0, #0xf
ffff0000000808f0:	927df021 	and	x1, x1, #0xfffffffffffffff8
ffff0000000808f4:	f90017e1 	str	x1, [sp, #40]
ffff0000000808f8:	1400000d 	b	ffff00000008092c <printk+0x2c4>
ffff0000000808fc:	11002022 	add	w2, w1, #0x8
ffff000000080900:	b90043e2 	str	w2, [sp, #64]
ffff000000080904:	b94043e2 	ldr	w2, [sp, #64]
ffff000000080908:	7100005f 	cmp	w2, #0x0
ffff00000008090c:	540000ad 	b.le	ffff000000080920 <printk+0x2b8>
ffff000000080910:	91003c01 	add	x1, x0, #0xf
ffff000000080914:	927df021 	and	x1, x1, #0xfffffffffffffff8
ffff000000080918:	f90017e1 	str	x1, [sp, #40]
ffff00000008091c:	14000004 	b	ffff00000008092c <printk+0x2c4>
ffff000000080920:	f9401be2 	ldr	x2, [sp, #48]
ffff000000080924:	93407c20 	sxtw	x0, w1
ffff000000080928:	8b000040 	add	x0, x2, x0
ffff00000008092c:	f9400000 	ldr	x0, [x0]
ffff000000080930:	f90227e0 	str	x0, [sp, #1096]
ffff000000080934:	910123e0 	add	x0, sp, #0x48
ffff000000080938:	f94227e2 	ldr	x2, [sp, #1096]
ffff00000008093c:	b9445fe1 	ldr	w1, [sp, #1116]
ffff000000080940:	97fffe7d 	bl	ffff000000080334 <read_string>
ffff000000080944:	2a0003e1 	mov	w1, w0
ffff000000080948:	b9445fe0 	ldr	w0, [sp, #1116]
ffff00000008094c:	0b010000 	add	w0, w0, w1
ffff000000080950:	b9045fe0 	str	w0, [sp, #1116]
ffff000000080954:	1400000b 	b	ffff000000080980 <printk+0x318>
ffff000000080958:	b9445fe0 	ldr	w0, [sp, #1116]
ffff00000008095c:	11000401 	add	w1, w0, #0x1
ffff000000080960:	b9045fe1 	str	w1, [sp, #1116]
ffff000000080964:	93407c00 	sxtw	x0, w0
ffff000000080968:	910123e1 	add	x1, sp, #0x48
ffff00000008096c:	528004a2 	mov	w2, #0x25                  	// #37
ffff000000080970:	38206822 	strb	w2, [x1, x0]
ffff000000080974:	b9445be0 	ldr	w0, [sp, #1112]
ffff000000080978:	51000400 	sub	w0, w0, #0x1
ffff00000008097c:	b9045be0 	str	w0, [sp, #1112]
ffff000000080980:	b9445be0 	ldr	w0, [sp, #1112]
ffff000000080984:	11000400 	add	w0, w0, #0x1
ffff000000080988:	b9045be0 	str	w0, [sp, #1112]
ffff00000008098c:	b9845be0 	ldrsw	x0, [sp, #1112]
ffff000000080990:	f9400fe1 	ldr	x1, [sp, #24]
ffff000000080994:	8b000020 	add	x0, x1, x0
ffff000000080998:	39400000 	ldrb	w0, [x0]
ffff00000008099c:	7100001f 	cmp	w0, #0x0
ffff0000000809a0:	54ffe961 	b.ne	ffff0000000806cc <printk+0x64>  // b.any
ffff0000000809a4:	910123e0 	add	x0, sp, #0x48
ffff0000000809a8:	b9445fe1 	ldr	w1, [sp, #1116]
ffff0000000809ac:	97ffff19 	bl	ffff000000080610 <write_console>
ffff0000000809b0:	b9445fe0 	ldr	w0, [sp, #1116]
ffff0000000809b4:	a9407bfd 	ldp	x29, x30, [sp]
ffff0000000809b8:	911283ff 	add	sp, sp, #0x4a0
ffff0000000809bc:	d65f03c0 	ret

ffff0000000809c0 <sprintk>:
ffff0000000809c0:	d11243ff 	sub	sp, sp, #0x490
ffff0000000809c4:	a9007bfd 	stp	x29, x30, [sp]
ffff0000000809c8:	910003fd 	mov	x29, sp
ffff0000000809cc:	f9000fe0 	str	x0, [sp, #24]
ffff0000000809d0:	f9000be1 	str	x1, [sp, #16]
ffff0000000809d4:	f90233e2 	str	x2, [sp, #1120]
ffff0000000809d8:	f90237e3 	str	x3, [sp, #1128]
ffff0000000809dc:	f9023be4 	str	x4, [sp, #1136]
ffff0000000809e0:	f9023fe5 	str	x5, [sp, #1144]
ffff0000000809e4:	f90243e6 	str	x6, [sp, #1152]
ffff0000000809e8:	f90247e7 	str	x7, [sp, #1160]
ffff0000000809ec:	b9045fff 	str	wzr, [sp, #1116]
ffff0000000809f0:	f90227ff 	str	xzr, [sp, #1096]
ffff0000000809f4:	f90223ff 	str	xzr, [sp, #1088]
ffff0000000809f8:	911243e0 	add	x0, sp, #0x490
ffff0000000809fc:	f90013e0 	str	x0, [sp, #32]
ffff000000080a00:	911243e0 	add	x0, sp, #0x490
ffff000000080a04:	f90017e0 	str	x0, [sp, #40]
ffff000000080a08:	911183e0 	add	x0, sp, #0x460
ffff000000080a0c:	f9001be0 	str	x0, [sp, #48]
ffff000000080a10:	128005e0 	mov	w0, #0xffffffd0            	// #-48
ffff000000080a14:	b9003be0 	str	w0, [sp, #56]
ffff000000080a18:	b9003fff 	str	wzr, [sp, #60]
ffff000000080a1c:	b9045bff 	str	wzr, [sp, #1112]
ffff000000080a20:	140000b1 	b	ffff000000080ce4 <sprintk+0x324>
ffff000000080a24:	b9845be0 	ldrsw	x0, [sp, #1112]
ffff000000080a28:	f9400be1 	ldr	x1, [sp, #16]
ffff000000080a2c:	8b000020 	add	x0, x1, x0
ffff000000080a30:	39400000 	ldrb	w0, [x0]
ffff000000080a34:	7100941f 	cmp	w0, #0x25
ffff000000080a38:	54000180 	b.eq	ffff000000080a68 <sprintk+0xa8>  // b.none
ffff000000080a3c:	b9845be0 	ldrsw	x0, [sp, #1112]
ffff000000080a40:	f9400be1 	ldr	x1, [sp, #16]
ffff000000080a44:	8b000021 	add	x1, x1, x0
ffff000000080a48:	b9445fe0 	ldr	w0, [sp, #1116]
ffff000000080a4c:	11000402 	add	w2, w0, #0x1
ffff000000080a50:	b9045fe2 	str	w2, [sp, #1116]
ffff000000080a54:	39400022 	ldrb	w2, [x1]
ffff000000080a58:	93407c00 	sxtw	x0, w0
ffff000000080a5c:	910103e1 	add	x1, sp, #0x40
ffff000000080a60:	38206822 	strb	w2, [x1, x0]
ffff000000080a64:	1400009d 	b	ffff000000080cd8 <sprintk+0x318>
ffff000000080a68:	b9445be0 	ldr	w0, [sp, #1112]
ffff000000080a6c:	11000400 	add	w0, w0, #0x1
ffff000000080a70:	b9045be0 	str	w0, [sp, #1112]
ffff000000080a74:	b9845be0 	ldrsw	x0, [sp, #1112]
ffff000000080a78:	f9400be1 	ldr	x1, [sp, #16]
ffff000000080a7c:	8b000020 	add	x0, x1, x0
ffff000000080a80:	39400000 	ldrb	w0, [x0]
ffff000000080a84:	7101e01f 	cmp	w0, #0x78
ffff000000080a88:	54000180 	b.eq	ffff000000080ab8 <sprintk+0xf8>  // b.none
ffff000000080a8c:	7101e01f 	cmp	w0, #0x78
ffff000000080a90:	5400110c 	b.gt	ffff000000080cb0 <sprintk+0x2f0>
ffff000000080a94:	7101d41f 	cmp	w0, #0x75
ffff000000080a98:	54000500 	b.eq	ffff000000080b38 <sprintk+0x178>  // b.none
ffff000000080a9c:	7101d41f 	cmp	w0, #0x75
ffff000000080aa0:	5400108c 	b.gt	ffff000000080cb0 <sprintk+0x2f0>
ffff000000080aa4:	7101901f 	cmp	w0, #0x64
ffff000000080aa8:	54000880 	b.eq	ffff000000080bb8 <sprintk+0x1f8>  // b.none
ffff000000080aac:	7101cc1f 	cmp	w0, #0x73
ffff000000080ab0:	54000c20 	b.eq	ffff000000080c34 <sprintk+0x274>  // b.none
ffff000000080ab4:	1400007f 	b	ffff000000080cb0 <sprintk+0x2f0>
ffff000000080ab8:	b9403be1 	ldr	w1, [sp, #56]
ffff000000080abc:	f94013e0 	ldr	x0, [sp, #32]
ffff000000080ac0:	7100003f 	cmp	w1, #0x0
ffff000000080ac4:	540000ab 	b.lt	ffff000000080ad8 <sprintk+0x118>  // b.tstop
ffff000000080ac8:	91003c01 	add	x1, x0, #0xf
ffff000000080acc:	927df021 	and	x1, x1, #0xfffffffffffffff8
ffff000000080ad0:	f90013e1 	str	x1, [sp, #32]
ffff000000080ad4:	1400000d 	b	ffff000000080b08 <sprintk+0x148>
ffff000000080ad8:	11002022 	add	w2, w1, #0x8
ffff000000080adc:	b9003be2 	str	w2, [sp, #56]
ffff000000080ae0:	b9403be2 	ldr	w2, [sp, #56]
ffff000000080ae4:	7100005f 	cmp	w2, #0x0
ffff000000080ae8:	540000ad 	b.le	ffff000000080afc <sprintk+0x13c>
ffff000000080aec:	91003c01 	add	x1, x0, #0xf
ffff000000080af0:	927df021 	and	x1, x1, #0xfffffffffffffff8
ffff000000080af4:	f90013e1 	str	x1, [sp, #32]
ffff000000080af8:	14000004 	b	ffff000000080b08 <sprintk+0x148>
ffff000000080afc:	f94017e2 	ldr	x2, [sp, #40]
ffff000000080b00:	93407c20 	sxtw	x0, w1
ffff000000080b04:	8b000040 	add	x0, x2, x0
ffff000000080b08:	f9400000 	ldr	x0, [x0]
ffff000000080b0c:	f90227e0 	str	x0, [sp, #1096]
ffff000000080b10:	f94227e1 	ldr	x1, [sp, #1096]
ffff000000080b14:	910103e0 	add	x0, sp, #0x40
ffff000000080b18:	aa0103e2 	mov	x2, x1
ffff000000080b1c:	b9445fe1 	ldr	w1, [sp, #1116]
ffff000000080b20:	97fffe23 	bl	ffff0000000803ac <hex_to_string>
ffff000000080b24:	2a0003e1 	mov	w1, w0
ffff000000080b28:	b9445fe0 	ldr	w0, [sp, #1116]
ffff000000080b2c:	0b010000 	add	w0, w0, w1
ffff000000080b30:	b9045fe0 	str	w0, [sp, #1116]
ffff000000080b34:	14000069 	b	ffff000000080cd8 <sprintk+0x318>
ffff000000080b38:	b9403be1 	ldr	w1, [sp, #56]
ffff000000080b3c:	f94013e0 	ldr	x0, [sp, #32]
ffff000000080b40:	7100003f 	cmp	w1, #0x0
ffff000000080b44:	540000ab 	b.lt	ffff000000080b58 <sprintk+0x198>  // b.tstop
ffff000000080b48:	91003c01 	add	x1, x0, #0xf
ffff000000080b4c:	927df021 	and	x1, x1, #0xfffffffffffffff8
ffff000000080b50:	f90013e1 	str	x1, [sp, #32]
ffff000000080b54:	1400000d 	b	ffff000000080b88 <sprintk+0x1c8>
ffff000000080b58:	11002022 	add	w2, w1, #0x8
ffff000000080b5c:	b9003be2 	str	w2, [sp, #56]
ffff000000080b60:	b9403be2 	ldr	w2, [sp, #56]
ffff000000080b64:	7100005f 	cmp	w2, #0x0
ffff000000080b68:	540000ad 	b.le	ffff000000080b7c <sprintk+0x1bc>
ffff000000080b6c:	91003c01 	add	x1, x0, #0xf
ffff000000080b70:	927df021 	and	x1, x1, #0xfffffffffffffff8
ffff000000080b74:	f90013e1 	str	x1, [sp, #32]
ffff000000080b78:	14000004 	b	ffff000000080b88 <sprintk+0x1c8>
ffff000000080b7c:	f94017e2 	ldr	x2, [sp, #40]
ffff000000080b80:	93407c20 	sxtw	x0, w1
ffff000000080b84:	8b000040 	add	x0, x2, x0
ffff000000080b88:	f9400000 	ldr	x0, [x0]
ffff000000080b8c:	f90227e0 	str	x0, [sp, #1096]
ffff000000080b90:	f94227e1 	ldr	x1, [sp, #1096]
ffff000000080b94:	910103e0 	add	x0, sp, #0x40
ffff000000080b98:	aa0103e2 	mov	x2, x1
ffff000000080b9c:	b9445fe1 	ldr	w1, [sp, #1116]
ffff000000080ba0:	97fffe3c 	bl	ffff000000080490 <udecimal_to_string>
ffff000000080ba4:	2a0003e1 	mov	w1, w0
ffff000000080ba8:	b9445fe0 	ldr	w0, [sp, #1116]
ffff000000080bac:	0b010000 	add	w0, w0, w1
ffff000000080bb0:	b9045fe0 	str	w0, [sp, #1116]
ffff000000080bb4:	14000049 	b	ffff000000080cd8 <sprintk+0x318>
ffff000000080bb8:	b9403be1 	ldr	w1, [sp, #56]
ffff000000080bbc:	f94013e0 	ldr	x0, [sp, #32]
ffff000000080bc0:	7100003f 	cmp	w1, #0x0
ffff000000080bc4:	540000ab 	b.lt	ffff000000080bd8 <sprintk+0x218>  // b.tstop
ffff000000080bc8:	91003c01 	add	x1, x0, #0xf
ffff000000080bcc:	927df021 	and	x1, x1, #0xfffffffffffffff8
ffff000000080bd0:	f90013e1 	str	x1, [sp, #32]
ffff000000080bd4:	1400000d 	b	ffff000000080c08 <sprintk+0x248>
ffff000000080bd8:	11002022 	add	w2, w1, #0x8
ffff000000080bdc:	b9003be2 	str	w2, [sp, #56]
ffff000000080be0:	b9403be2 	ldr	w2, [sp, #56]
ffff000000080be4:	7100005f 	cmp	w2, #0x0
ffff000000080be8:	540000ad 	b.le	ffff000000080bfc <sprintk+0x23c>
ffff000000080bec:	91003c01 	add	x1, x0, #0xf
ffff000000080bf0:	927df021 	and	x1, x1, #0xfffffffffffffff8
ffff000000080bf4:	f90013e1 	str	x1, [sp, #32]
ffff000000080bf8:	14000004 	b	ffff000000080c08 <sprintk+0x248>
ffff000000080bfc:	f94017e2 	ldr	x2, [sp, #40]
ffff000000080c00:	93407c20 	sxtw	x0, w1
ffff000000080c04:	8b000040 	add	x0, x2, x0
ffff000000080c08:	f9400000 	ldr	x0, [x0]
ffff000000080c0c:	f90227e0 	str	x0, [sp, #1096]
ffff000000080c10:	910103e0 	add	x0, sp, #0x40
ffff000000080c14:	f94227e2 	ldr	x2, [sp, #1096]
ffff000000080c18:	b9445fe1 	ldr	w1, [sp, #1116]
ffff000000080c1c:	97fffe5b 	bl	ffff000000080588 <decimal_to_string>
ffff000000080c20:	2a0003e1 	mov	w1, w0
ffff000000080c24:	b9445fe0 	ldr	w0, [sp, #1116]
ffff000000080c28:	0b010000 	add	w0, w0, w1
ffff000000080c2c:	b9045fe0 	str	w0, [sp, #1116]
ffff000000080c30:	1400002a 	b	ffff000000080cd8 <sprintk+0x318>
ffff000000080c34:	b9403be1 	ldr	w1, [sp, #56]
ffff000000080c38:	f94013e0 	ldr	x0, [sp, #32]
ffff000000080c3c:	7100003f 	cmp	w1, #0x0
ffff000000080c40:	540000ab 	b.lt	ffff000000080c54 <sprintk+0x294>  // b.tstop
ffff000000080c44:	91003c01 	add	x1, x0, #0xf
ffff000000080c48:	927df021 	and	x1, x1, #0xfffffffffffffff8
ffff000000080c4c:	f90013e1 	str	x1, [sp, #32]
ffff000000080c50:	1400000d 	b	ffff000000080c84 <sprintk+0x2c4>
ffff000000080c54:	11002022 	add	w2, w1, #0x8
ffff000000080c58:	b9003be2 	str	w2, [sp, #56]
ffff000000080c5c:	b9403be2 	ldr	w2, [sp, #56]
ffff000000080c60:	7100005f 	cmp	w2, #0x0
ffff000000080c64:	540000ad 	b.le	ffff000000080c78 <sprintk+0x2b8>
ffff000000080c68:	91003c01 	add	x1, x0, #0xf
ffff000000080c6c:	927df021 	and	x1, x1, #0xfffffffffffffff8
ffff000000080c70:	f90013e1 	str	x1, [sp, #32]
ffff000000080c74:	14000004 	b	ffff000000080c84 <sprintk+0x2c4>
ffff000000080c78:	f94017e2 	ldr	x2, [sp, #40]
ffff000000080c7c:	93407c20 	sxtw	x0, w1
ffff000000080c80:	8b000040 	add	x0, x2, x0
ffff000000080c84:	f9400000 	ldr	x0, [x0]
ffff000000080c88:	f90223e0 	str	x0, [sp, #1088]
ffff000000080c8c:	910103e0 	add	x0, sp, #0x40
ffff000000080c90:	f94223e2 	ldr	x2, [sp, #1088]
ffff000000080c94:	b9445fe1 	ldr	w1, [sp, #1116]
ffff000000080c98:	97fffda7 	bl	ffff000000080334 <read_string>
ffff000000080c9c:	2a0003e1 	mov	w1, w0
ffff000000080ca0:	b9445fe0 	ldr	w0, [sp, #1116]
ffff000000080ca4:	0b010000 	add	w0, w0, w1
ffff000000080ca8:	b9045fe0 	str	w0, [sp, #1116]
ffff000000080cac:	1400000b 	b	ffff000000080cd8 <sprintk+0x318>
ffff000000080cb0:	b9445fe0 	ldr	w0, [sp, #1116]
ffff000000080cb4:	11000401 	add	w1, w0, #0x1
ffff000000080cb8:	b9045fe1 	str	w1, [sp, #1116]
ffff000000080cbc:	93407c00 	sxtw	x0, w0
ffff000000080cc0:	910103e1 	add	x1, sp, #0x40
ffff000000080cc4:	528004a2 	mov	w2, #0x25                  	// #37
ffff000000080cc8:	38206822 	strb	w2, [x1, x0]
ffff000000080ccc:	b9445be0 	ldr	w0, [sp, #1112]
ffff000000080cd0:	51000400 	sub	w0, w0, #0x1
ffff000000080cd4:	b9045be0 	str	w0, [sp, #1112]
ffff000000080cd8:	b9445be0 	ldr	w0, [sp, #1112]
ffff000000080cdc:	11000400 	add	w0, w0, #0x1
ffff000000080ce0:	b9045be0 	str	w0, [sp, #1112]
ffff000000080ce4:	b9845be0 	ldrsw	x0, [sp, #1112]
ffff000000080ce8:	f9400be1 	ldr	x1, [sp, #16]
ffff000000080cec:	8b000020 	add	x0, x1, x0
ffff000000080cf0:	39400000 	ldrb	w0, [x0]
ffff000000080cf4:	7100001f 	cmp	w0, #0x0
ffff000000080cf8:	54ffe961 	b.ne	ffff000000080a24 <sprintk+0x64>  // b.any
ffff000000080cfc:	b90457ff 	str	wzr, [sp, #1108]
ffff000000080d00:	1400000b 	b	ffff000000080d2c <sprintk+0x36c>
ffff000000080d04:	b98457e0 	ldrsw	x0, [sp, #1108]
ffff000000080d08:	f9400fe1 	ldr	x1, [sp, #24]
ffff000000080d0c:	8b000020 	add	x0, x1, x0
ffff000000080d10:	b98457e1 	ldrsw	x1, [sp, #1108]
ffff000000080d14:	910103e2 	add	x2, sp, #0x40
ffff000000080d18:	38616841 	ldrb	w1, [x2, x1]
ffff000000080d1c:	39000001 	strb	w1, [x0]
ffff000000080d20:	b94457e0 	ldr	w0, [sp, #1108]
ffff000000080d24:	11000400 	add	w0, w0, #0x1
ffff000000080d28:	b90457e0 	str	w0, [sp, #1108]
ffff000000080d2c:	b94457e1 	ldr	w1, [sp, #1108]
ffff000000080d30:	b9445fe0 	ldr	w0, [sp, #1116]
ffff000000080d34:	6b00003f 	cmp	w1, w0
ffff000000080d38:	54fffe6b 	b.lt	ffff000000080d04 <sprintk+0x344>  // b.tstop
ffff000000080d3c:	b9845fe0 	ldrsw	x0, [sp, #1116]
ffff000000080d40:	f9400fe1 	ldr	x1, [sp, #24]
ffff000000080d44:	8b000020 	add	x0, x1, x0
ffff000000080d48:	3900001f 	strb	wzr, [x0]
ffff000000080d4c:	b9445fe0 	ldr	w0, [sp, #1116]
ffff000000080d50:	a9407bfd 	ldp	x29, x30, [sp]
ffff000000080d54:	911243ff 	add	sp, sp, #0x490
ffff000000080d58:	d65f03c0 	ret

ffff000000080d5c <error_check>:
ffff000000080d5c:	a9be7bfd 	stp	x29, x30, [sp, #-32]!
ffff000000080d60:	910003fd 	mov	x29, sp
ffff000000080d64:	f9000fe0 	str	x0, [sp, #24]
ffff000000080d68:	f9000be1 	str	x1, [sp, #16]
ffff000000080d6c:	b0000060 	adrp	x0, ffff00000008d000 <video_set_resolution+0x1fc>
ffff000000080d70:	91364000 	add	x0, x0, #0xd90
ffff000000080d74:	97fffe3d 	bl	ffff000000080668 <printk>
ffff000000080d78:	b0000060 	adrp	x0, ffff00000008d000 <video_set_resolution+0x1fc>
ffff000000080d7c:	9136e000 	add	x0, x0, #0xdb8
ffff000000080d80:	97fffe3a 	bl	ffff000000080668 <printk>
ffff000000080d84:	b0000060 	adrp	x0, ffff00000008d000 <video_set_resolution+0x1fc>
ffff000000080d88:	91364000 	add	x0, x0, #0xd90
ffff000000080d8c:	97fffe37 	bl	ffff000000080668 <printk>
ffff000000080d90:	f9400be2 	ldr	x2, [sp, #16]
ffff000000080d94:	f9400fe1 	ldr	x1, [sp, #24]
ffff000000080d98:	b0000060 	adrp	x0, ffff00000008d000 <video_set_resolution+0x1fc>
ffff000000080d9c:	91376000 	add	x0, x0, #0xdd8
ffff000000080da0:	97fffe32 	bl	ffff000000080668 <printk>
ffff000000080da4:	d503201f 	nop
ffff000000080da8:	17ffffff 	b	ffff000000080da4 <error_check+0x48>
	...

ffff000000081000 <vector_table>:
ffff000000081000:	14000233 	b	ffff0000000818cc <error>
ffff000000081004:	d503201f 	nop
ffff000000081008:	d503201f 	nop
ffff00000008100c:	d503201f 	nop
ffff000000081010:	d503201f 	nop
ffff000000081014:	d503201f 	nop
ffff000000081018:	d503201f 	nop
ffff00000008101c:	d503201f 	nop
ffff000000081020:	d503201f 	nop
ffff000000081024:	d503201f 	nop
ffff000000081028:	d503201f 	nop
ffff00000008102c:	d503201f 	nop
ffff000000081030:	d503201f 	nop
ffff000000081034:	d503201f 	nop
ffff000000081038:	d503201f 	nop
ffff00000008103c:	d503201f 	nop
ffff000000081040:	d503201f 	nop
ffff000000081044:	d503201f 	nop
ffff000000081048:	d503201f 	nop
ffff00000008104c:	d503201f 	nop
ffff000000081050:	d503201f 	nop
ffff000000081054:	d503201f 	nop
ffff000000081058:	d503201f 	nop
ffff00000008105c:	d503201f 	nop
ffff000000081060:	d503201f 	nop
ffff000000081064:	d503201f 	nop
ffff000000081068:	d503201f 	nop
ffff00000008106c:	d503201f 	nop
ffff000000081070:	d503201f 	nop
ffff000000081074:	d503201f 	nop
ffff000000081078:	d503201f 	nop
ffff00000008107c:	d503201f 	nop

ffff000000081080 <current_el_sp0_irq>:
ffff000000081080:	14000213 	b	ffff0000000818cc <error>
ffff000000081084:	d503201f 	nop
ffff000000081088:	d503201f 	nop
ffff00000008108c:	d503201f 	nop
ffff000000081090:	d503201f 	nop
ffff000000081094:	d503201f 	nop
ffff000000081098:	d503201f 	nop
ffff00000008109c:	d503201f 	nop
ffff0000000810a0:	d503201f 	nop
ffff0000000810a4:	d503201f 	nop
ffff0000000810a8:	d503201f 	nop
ffff0000000810ac:	d503201f 	nop
ffff0000000810b0:	d503201f 	nop
ffff0000000810b4:	d503201f 	nop
ffff0000000810b8:	d503201f 	nop
ffff0000000810bc:	d503201f 	nop
ffff0000000810c0:	d503201f 	nop
ffff0000000810c4:	d503201f 	nop
ffff0000000810c8:	d503201f 	nop
ffff0000000810cc:	d503201f 	nop
ffff0000000810d0:	d503201f 	nop
ffff0000000810d4:	d503201f 	nop
ffff0000000810d8:	d503201f 	nop
ffff0000000810dc:	d503201f 	nop
ffff0000000810e0:	d503201f 	nop
ffff0000000810e4:	d503201f 	nop
ffff0000000810e8:	d503201f 	nop
ffff0000000810ec:	d503201f 	nop
ffff0000000810f0:	d503201f 	nop
ffff0000000810f4:	d503201f 	nop
ffff0000000810f8:	d503201f 	nop
ffff0000000810fc:	d503201f 	nop

ffff000000081100 <current_el_sp0_fiq>:
ffff000000081100:	140001f3 	b	ffff0000000818cc <error>
ffff000000081104:	d503201f 	nop
ffff000000081108:	d503201f 	nop
ffff00000008110c:	d503201f 	nop
ffff000000081110:	d503201f 	nop
ffff000000081114:	d503201f 	nop
ffff000000081118:	d503201f 	nop
ffff00000008111c:	d503201f 	nop
ffff000000081120:	d503201f 	nop
ffff000000081124:	d503201f 	nop
ffff000000081128:	d503201f 	nop
ffff00000008112c:	d503201f 	nop
ffff000000081130:	d503201f 	nop
ffff000000081134:	d503201f 	nop
ffff000000081138:	d503201f 	nop
ffff00000008113c:	d503201f 	nop
ffff000000081140:	d503201f 	nop
ffff000000081144:	d503201f 	nop
ffff000000081148:	d503201f 	nop
ffff00000008114c:	d503201f 	nop
ffff000000081150:	d503201f 	nop
ffff000000081154:	d503201f 	nop
ffff000000081158:	d503201f 	nop
ffff00000008115c:	d503201f 	nop
ffff000000081160:	d503201f 	nop
ffff000000081164:	d503201f 	nop
ffff000000081168:	d503201f 	nop
ffff00000008116c:	d503201f 	nop
ffff000000081170:	d503201f 	nop
ffff000000081174:	d503201f 	nop
ffff000000081178:	d503201f 	nop
ffff00000008117c:	d503201f 	nop

ffff000000081180 <current_el_sp0_serror>:
ffff000000081180:	140001d3 	b	ffff0000000818cc <error>
ffff000000081184:	d503201f 	nop
ffff000000081188:	d503201f 	nop
ffff00000008118c:	d503201f 	nop
ffff000000081190:	d503201f 	nop
ffff000000081194:	d503201f 	nop
ffff000000081198:	d503201f 	nop
ffff00000008119c:	d503201f 	nop
ffff0000000811a0:	d503201f 	nop
ffff0000000811a4:	d503201f 	nop
ffff0000000811a8:	d503201f 	nop
ffff0000000811ac:	d503201f 	nop
ffff0000000811b0:	d503201f 	nop
ffff0000000811b4:	d503201f 	nop
ffff0000000811b8:	d503201f 	nop
ffff0000000811bc:	d503201f 	nop
ffff0000000811c0:	d503201f 	nop
ffff0000000811c4:	d503201f 	nop
ffff0000000811c8:	d503201f 	nop
ffff0000000811cc:	d503201f 	nop
ffff0000000811d0:	d503201f 	nop
ffff0000000811d4:	d503201f 	nop
ffff0000000811d8:	d503201f 	nop
ffff0000000811dc:	d503201f 	nop
ffff0000000811e0:	d503201f 	nop
ffff0000000811e4:	d503201f 	nop
ffff0000000811e8:	d503201f 	nop
ffff0000000811ec:	d503201f 	nop
ffff0000000811f0:	d503201f 	nop
ffff0000000811f4:	d503201f 	nop
ffff0000000811f8:	d503201f 	nop
ffff0000000811fc:	d503201f 	nop

ffff000000081200 <current_el_spn_sync>:
ffff000000081200:	14000178 	b	ffff0000000817e0 <sync_handler>
ffff000000081204:	d503201f 	nop
ffff000000081208:	d503201f 	nop
ffff00000008120c:	d503201f 	nop
ffff000000081210:	d503201f 	nop
ffff000000081214:	d503201f 	nop
ffff000000081218:	d503201f 	nop
ffff00000008121c:	d503201f 	nop
ffff000000081220:	d503201f 	nop
ffff000000081224:	d503201f 	nop
ffff000000081228:	d503201f 	nop
ffff00000008122c:	d503201f 	nop
ffff000000081230:	d503201f 	nop
ffff000000081234:	d503201f 	nop
ffff000000081238:	d503201f 	nop
ffff00000008123c:	d503201f 	nop
ffff000000081240:	d503201f 	nop
ffff000000081244:	d503201f 	nop
ffff000000081248:	d503201f 	nop
ffff00000008124c:	d503201f 	nop
ffff000000081250:	d503201f 	nop
ffff000000081254:	d503201f 	nop
ffff000000081258:	d503201f 	nop
ffff00000008125c:	d503201f 	nop
ffff000000081260:	d503201f 	nop
ffff000000081264:	d503201f 	nop
ffff000000081268:	d503201f 	nop
ffff00000008126c:	d503201f 	nop
ffff000000081270:	d503201f 	nop
ffff000000081274:	d503201f 	nop
ffff000000081278:	d503201f 	nop
ffff00000008127c:	d503201f 	nop

ffff000000081280 <current_el_spn_irq>:
ffff000000081280:	14000178 	b	ffff000000081860 <irq_handler>
ffff000000081284:	d503201f 	nop
ffff000000081288:	d503201f 	nop
ffff00000008128c:	d503201f 	nop
ffff000000081290:	d503201f 	nop
ffff000000081294:	d503201f 	nop
ffff000000081298:	d503201f 	nop
ffff00000008129c:	d503201f 	nop
ffff0000000812a0:	d503201f 	nop
ffff0000000812a4:	d503201f 	nop
ffff0000000812a8:	d503201f 	nop
ffff0000000812ac:	d503201f 	nop
ffff0000000812b0:	d503201f 	nop
ffff0000000812b4:	d503201f 	nop
ffff0000000812b8:	d503201f 	nop
ffff0000000812bc:	d503201f 	nop
ffff0000000812c0:	d503201f 	nop
ffff0000000812c4:	d503201f 	nop
ffff0000000812c8:	d503201f 	nop
ffff0000000812cc:	d503201f 	nop
ffff0000000812d0:	d503201f 	nop
ffff0000000812d4:	d503201f 	nop
ffff0000000812d8:	d503201f 	nop
ffff0000000812dc:	d503201f 	nop
ffff0000000812e0:	d503201f 	nop
ffff0000000812e4:	d503201f 	nop
ffff0000000812e8:	d503201f 	nop
ffff0000000812ec:	d503201f 	nop
ffff0000000812f0:	d503201f 	nop
ffff0000000812f4:	d503201f 	nop
ffff0000000812f8:	d503201f 	nop
ffff0000000812fc:	d503201f 	nop

ffff000000081300 <current_el_spn_fiq>:
ffff000000081300:	14000173 	b	ffff0000000818cc <error>
ffff000000081304:	d503201f 	nop
ffff000000081308:	d503201f 	nop
ffff00000008130c:	d503201f 	nop
ffff000000081310:	d503201f 	nop
ffff000000081314:	d503201f 	nop
ffff000000081318:	d503201f 	nop
ffff00000008131c:	d503201f 	nop
ffff000000081320:	d503201f 	nop
ffff000000081324:	d503201f 	nop
ffff000000081328:	d503201f 	nop
ffff00000008132c:	d503201f 	nop
ffff000000081330:	d503201f 	nop
ffff000000081334:	d503201f 	nop
ffff000000081338:	d503201f 	nop
ffff00000008133c:	d503201f 	nop
ffff000000081340:	d503201f 	nop
ffff000000081344:	d503201f 	nop
ffff000000081348:	d503201f 	nop
ffff00000008134c:	d503201f 	nop
ffff000000081350:	d503201f 	nop
ffff000000081354:	d503201f 	nop
ffff000000081358:	d503201f 	nop
ffff00000008135c:	d503201f 	nop
ffff000000081360:	d503201f 	nop
ffff000000081364:	d503201f 	nop
ffff000000081368:	d503201f 	nop
ffff00000008136c:	d503201f 	nop
ffff000000081370:	d503201f 	nop
ffff000000081374:	d503201f 	nop
ffff000000081378:	d503201f 	nop
ffff00000008137c:	d503201f 	nop

ffff000000081380 <current_el_spn_serror>:
ffff000000081380:	14000153 	b	ffff0000000818cc <error>
ffff000000081384:	d503201f 	nop
ffff000000081388:	d503201f 	nop
ffff00000008138c:	d503201f 	nop
ffff000000081390:	d503201f 	nop
ffff000000081394:	d503201f 	nop
ffff000000081398:	d503201f 	nop
ffff00000008139c:	d503201f 	nop
ffff0000000813a0:	d503201f 	nop
ffff0000000813a4:	d503201f 	nop
ffff0000000813a8:	d503201f 	nop
ffff0000000813ac:	d503201f 	nop
ffff0000000813b0:	d503201f 	nop
ffff0000000813b4:	d503201f 	nop
ffff0000000813b8:	d503201f 	nop
ffff0000000813bc:	d503201f 	nop
ffff0000000813c0:	d503201f 	nop
ffff0000000813c4:	d503201f 	nop
ffff0000000813c8:	d503201f 	nop
ffff0000000813cc:	d503201f 	nop
ffff0000000813d0:	d503201f 	nop
ffff0000000813d4:	d503201f 	nop
ffff0000000813d8:	d503201f 	nop
ffff0000000813dc:	d503201f 	nop
ffff0000000813e0:	d503201f 	nop
ffff0000000813e4:	d503201f 	nop
ffff0000000813e8:	d503201f 	nop
ffff0000000813ec:	d503201f 	nop
ffff0000000813f0:	d503201f 	nop
ffff0000000813f4:	d503201f 	nop
ffff0000000813f8:	d503201f 	nop
ffff0000000813fc:	d503201f 	nop

ffff000000081400 <lower_el_aarch64_sync>:
ffff000000081400:	140000f8 	b	ffff0000000817e0 <sync_handler>
ffff000000081404:	d503201f 	nop
ffff000000081408:	d503201f 	nop
ffff00000008140c:	d503201f 	nop
ffff000000081410:	d503201f 	nop
ffff000000081414:	d503201f 	nop
ffff000000081418:	d503201f 	nop
ffff00000008141c:	d503201f 	nop
ffff000000081420:	d503201f 	nop
ffff000000081424:	d503201f 	nop
ffff000000081428:	d503201f 	nop
ffff00000008142c:	d503201f 	nop
ffff000000081430:	d503201f 	nop
ffff000000081434:	d503201f 	nop
ffff000000081438:	d503201f 	nop
ffff00000008143c:	d503201f 	nop
ffff000000081440:	d503201f 	nop
ffff000000081444:	d503201f 	nop
ffff000000081448:	d503201f 	nop
ffff00000008144c:	d503201f 	nop
ffff000000081450:	d503201f 	nop
ffff000000081454:	d503201f 	nop
ffff000000081458:	d503201f 	nop
ffff00000008145c:	d503201f 	nop
ffff000000081460:	d503201f 	nop
ffff000000081464:	d503201f 	nop
ffff000000081468:	d503201f 	nop
ffff00000008146c:	d503201f 	nop
ffff000000081470:	d503201f 	nop
ffff000000081474:	d503201f 	nop
ffff000000081478:	d503201f 	nop
ffff00000008147c:	d503201f 	nop

ffff000000081480 <lower_el_aarch64_irq>:
ffff000000081480:	140000f8 	b	ffff000000081860 <irq_handler>
ffff000000081484:	d503201f 	nop
ffff000000081488:	d503201f 	nop
ffff00000008148c:	d503201f 	nop
ffff000000081490:	d503201f 	nop
ffff000000081494:	d503201f 	nop
ffff000000081498:	d503201f 	nop
ffff00000008149c:	d503201f 	nop
ffff0000000814a0:	d503201f 	nop
ffff0000000814a4:	d503201f 	nop
ffff0000000814a8:	d503201f 	nop
ffff0000000814ac:	d503201f 	nop
ffff0000000814b0:	d503201f 	nop
ffff0000000814b4:	d503201f 	nop
ffff0000000814b8:	d503201f 	nop
ffff0000000814bc:	d503201f 	nop
ffff0000000814c0:	d503201f 	nop
ffff0000000814c4:	d503201f 	nop
ffff0000000814c8:	d503201f 	nop
ffff0000000814cc:	d503201f 	nop
ffff0000000814d0:	d503201f 	nop
ffff0000000814d4:	d503201f 	nop
ffff0000000814d8:	d503201f 	nop
ffff0000000814dc:	d503201f 	nop
ffff0000000814e0:	d503201f 	nop
ffff0000000814e4:	d503201f 	nop
ffff0000000814e8:	d503201f 	nop
ffff0000000814ec:	d503201f 	nop
ffff0000000814f0:	d503201f 	nop
ffff0000000814f4:	d503201f 	nop
ffff0000000814f8:	d503201f 	nop
ffff0000000814fc:	d503201f 	nop

ffff000000081500 <lower_el_aarch64_fiq>:
ffff000000081500:	140000f3 	b	ffff0000000818cc <error>
ffff000000081504:	d503201f 	nop
ffff000000081508:	d503201f 	nop
ffff00000008150c:	d503201f 	nop
ffff000000081510:	d503201f 	nop
ffff000000081514:	d503201f 	nop
ffff000000081518:	d503201f 	nop
ffff00000008151c:	d503201f 	nop
ffff000000081520:	d503201f 	nop
ffff000000081524:	d503201f 	nop
ffff000000081528:	d503201f 	nop
ffff00000008152c:	d503201f 	nop
ffff000000081530:	d503201f 	nop
ffff000000081534:	d503201f 	nop
ffff000000081538:	d503201f 	nop
ffff00000008153c:	d503201f 	nop
ffff000000081540:	d503201f 	nop
ffff000000081544:	d503201f 	nop
ffff000000081548:	d503201f 	nop
ffff00000008154c:	d503201f 	nop
ffff000000081550:	d503201f 	nop
ffff000000081554:	d503201f 	nop
ffff000000081558:	d503201f 	nop
ffff00000008155c:	d503201f 	nop
ffff000000081560:	d503201f 	nop
ffff000000081564:	d503201f 	nop
ffff000000081568:	d503201f 	nop
ffff00000008156c:	d503201f 	nop
ffff000000081570:	d503201f 	nop
ffff000000081574:	d503201f 	nop
ffff000000081578:	d503201f 	nop
ffff00000008157c:	d503201f 	nop

ffff000000081580 <lower_el_aarch64_serror>:
ffff000000081580:	140000d3 	b	ffff0000000818cc <error>
ffff000000081584:	d503201f 	nop
ffff000000081588:	d503201f 	nop
ffff00000008158c:	d503201f 	nop
ffff000000081590:	d503201f 	nop
ffff000000081594:	d503201f 	nop
ffff000000081598:	d503201f 	nop
ffff00000008159c:	d503201f 	nop
ffff0000000815a0:	d503201f 	nop
ffff0000000815a4:	d503201f 	nop
ffff0000000815a8:	d503201f 	nop
ffff0000000815ac:	d503201f 	nop
ffff0000000815b0:	d503201f 	nop
ffff0000000815b4:	d503201f 	nop
ffff0000000815b8:	d503201f 	nop
ffff0000000815bc:	d503201f 	nop
ffff0000000815c0:	d503201f 	nop
ffff0000000815c4:	d503201f 	nop
ffff0000000815c8:	d503201f 	nop
ffff0000000815cc:	d503201f 	nop
ffff0000000815d0:	d503201f 	nop
ffff0000000815d4:	d503201f 	nop
ffff0000000815d8:	d503201f 	nop
ffff0000000815dc:	d503201f 	nop
ffff0000000815e0:	d503201f 	nop
ffff0000000815e4:	d503201f 	nop
ffff0000000815e8:	d503201f 	nop
ffff0000000815ec:	d503201f 	nop
ffff0000000815f0:	d503201f 	nop
ffff0000000815f4:	d503201f 	nop
ffff0000000815f8:	d503201f 	nop
ffff0000000815fc:	d503201f 	nop

ffff000000081600 <lower_el_aarch32_sync>:
ffff000000081600:	140000b3 	b	ffff0000000818cc <error>
ffff000000081604:	d503201f 	nop
ffff000000081608:	d503201f 	nop
ffff00000008160c:	d503201f 	nop
ffff000000081610:	d503201f 	nop
ffff000000081614:	d503201f 	nop
ffff000000081618:	d503201f 	nop
ffff00000008161c:	d503201f 	nop
ffff000000081620:	d503201f 	nop
ffff000000081624:	d503201f 	nop
ffff000000081628:	d503201f 	nop
ffff00000008162c:	d503201f 	nop
ffff000000081630:	d503201f 	nop
ffff000000081634:	d503201f 	nop
ffff000000081638:	d503201f 	nop
ffff00000008163c:	d503201f 	nop
ffff000000081640:	d503201f 	nop
ffff000000081644:	d503201f 	nop
ffff000000081648:	d503201f 	nop
ffff00000008164c:	d503201f 	nop
ffff000000081650:	d503201f 	nop
ffff000000081654:	d503201f 	nop
ffff000000081658:	d503201f 	nop
ffff00000008165c:	d503201f 	nop
ffff000000081660:	d503201f 	nop
ffff000000081664:	d503201f 	nop
ffff000000081668:	d503201f 	nop
ffff00000008166c:	d503201f 	nop
ffff000000081670:	d503201f 	nop
ffff000000081674:	d503201f 	nop
ffff000000081678:	d503201f 	nop
ffff00000008167c:	d503201f 	nop

ffff000000081680 <lower_el_aarch32_irq>:
ffff000000081680:	14000093 	b	ffff0000000818cc <error>
ffff000000081684:	d503201f 	nop
ffff000000081688:	d503201f 	nop
ffff00000008168c:	d503201f 	nop
ffff000000081690:	d503201f 	nop
ffff000000081694:	d503201f 	nop
ffff000000081698:	d503201f 	nop
ffff00000008169c:	d503201f 	nop
ffff0000000816a0:	d503201f 	nop
ffff0000000816a4:	d503201f 	nop
ffff0000000816a8:	d503201f 	nop
ffff0000000816ac:	d503201f 	nop
ffff0000000816b0:	d503201f 	nop
ffff0000000816b4:	d503201f 	nop
ffff0000000816b8:	d503201f 	nop
ffff0000000816bc:	d503201f 	nop
ffff0000000816c0:	d503201f 	nop
ffff0000000816c4:	d503201f 	nop
ffff0000000816c8:	d503201f 	nop
ffff0000000816cc:	d503201f 	nop
ffff0000000816d0:	d503201f 	nop
ffff0000000816d4:	d503201f 	nop
ffff0000000816d8:	d503201f 	nop
ffff0000000816dc:	d503201f 	nop
ffff0000000816e0:	d503201f 	nop
ffff0000000816e4:	d503201f 	nop
ffff0000000816e8:	d503201f 	nop
ffff0000000816ec:	d503201f 	nop
ffff0000000816f0:	d503201f 	nop
ffff0000000816f4:	d503201f 	nop
ffff0000000816f8:	d503201f 	nop
ffff0000000816fc:	d503201f 	nop

ffff000000081700 <lower_el_aarch32_fiq>:
ffff000000081700:	14000073 	b	ffff0000000818cc <error>
ffff000000081704:	d503201f 	nop
ffff000000081708:	d503201f 	nop
ffff00000008170c:	d503201f 	nop
ffff000000081710:	d503201f 	nop
ffff000000081714:	d503201f 	nop
ffff000000081718:	d503201f 	nop
ffff00000008171c:	d503201f 	nop
ffff000000081720:	d503201f 	nop
ffff000000081724:	d503201f 	nop
ffff000000081728:	d503201f 	nop
ffff00000008172c:	d503201f 	nop
ffff000000081730:	d503201f 	nop
ffff000000081734:	d503201f 	nop
ffff000000081738:	d503201f 	nop
ffff00000008173c:	d503201f 	nop
ffff000000081740:	d503201f 	nop
ffff000000081744:	d503201f 	nop
ffff000000081748:	d503201f 	nop
ffff00000008174c:	d503201f 	nop
ffff000000081750:	d503201f 	nop
ffff000000081754:	d503201f 	nop
ffff000000081758:	d503201f 	nop
ffff00000008175c:	d503201f 	nop
ffff000000081760:	d503201f 	nop
ffff000000081764:	d503201f 	nop
ffff000000081768:	d503201f 	nop
ffff00000008176c:	d503201f 	nop
ffff000000081770:	d503201f 	nop
ffff000000081774:	d503201f 	nop
ffff000000081778:	d503201f 	nop
ffff00000008177c:	d503201f 	nop

ffff000000081780 <lower_el_aarch32_serror>:
ffff000000081780:	14000053 	b	ffff0000000818cc <error>

ffff000000081784 <pstart>:
ffff000000081784:	9100001f 	mov	sp, x0

ffff000000081788 <trap_return>:
ffff000000081788:	a95107e0 	ldp	x0, x1, [sp, #272]
ffff00000008178c:	d5184020 	msr	elr_el1, x0
ffff000000081790:	d5184001 	msr	spsr_el1, x1
ffff000000081794:	a94f03fe 	ldp	x30, x0, [sp, #240]
ffff000000081798:	d5184100 	msr	sp_el0, x0
ffff00000008179c:	a94007e0 	ldp	x0, x1, [sp]
ffff0000000817a0:	a9410fe2 	ldp	x2, x3, [sp, #16]
ffff0000000817a4:	a94217e4 	ldp	x4, x5, [sp, #32]
ffff0000000817a8:	a9431fe6 	ldp	x6, x7, [sp, #48]
ffff0000000817ac:	a94427e8 	ldp	x8, x9, [sp, #64]
ffff0000000817b0:	a9452fea 	ldp	x10, x11, [sp, #80]
ffff0000000817b4:	a94637ec 	ldp	x12, x13, [sp, #96]
ffff0000000817b8:	a9473fee 	ldp	x14, x15, [sp, #112]
ffff0000000817bc:	a94847f0 	ldp	x16, x17, [sp, #128]
ffff0000000817c0:	a9494ff2 	ldp	x18, x19, [sp, #144]
ffff0000000817c4:	a94a57f4 	ldp	x20, x21, [sp, #160]
ffff0000000817c8:	a94b5ff6 	ldp	x22, x23, [sp, #176]
ffff0000000817cc:	a94c67f8 	ldp	x24, x25, [sp, #192]
ffff0000000817d0:	a94d6ffa 	ldp	x26, x27, [sp, #208]
ffff0000000817d4:	a94e77fc 	ldp	x28, x29, [sp, #224]
ffff0000000817d8:	910483ff 	add	sp, sp, #0x120
ffff0000000817dc:	d69f03e0 	eret

ffff0000000817e0 <sync_handler>:
ffff0000000817e0:	d10483ff 	sub	sp, sp, #0x120
ffff0000000817e4:	a90007e0 	stp	x0, x1, [sp]
ffff0000000817e8:	a9010fe2 	stp	x2, x3, [sp, #16]
ffff0000000817ec:	a90217e4 	stp	x4, x5, [sp, #32]
ffff0000000817f0:	a9031fe6 	stp	x6, x7, [sp, #48]
ffff0000000817f4:	a90427e8 	stp	x8, x9, [sp, #64]
ffff0000000817f8:	a9052fea 	stp	x10, x11, [sp, #80]
ffff0000000817fc:	a90637ec 	stp	x12, x13, [sp, #96]
ffff000000081800:	a9073fee 	stp	x14, x15, [sp, #112]
ffff000000081804:	a90847f0 	stp	x16, x17, [sp, #128]
ffff000000081808:	a9094ff2 	stp	x18, x19, [sp, #144]
ffff00000008180c:	a90a57f4 	stp	x20, x21, [sp, #160]
ffff000000081810:	a90b5ff6 	stp	x22, x23, [sp, #176]
ffff000000081814:	a90c67f8 	stp	x24, x25, [sp, #192]
ffff000000081818:	a90d6ffa 	stp	x26, x27, [sp, #208]
ffff00000008181c:	a90e77fc 	stp	x28, x29, [sp, #224]
ffff000000081820:	d5384100 	mrs	x0, sp_el0
ffff000000081824:	a90f03fe 	stp	x30, x0, [sp, #240]
ffff000000081828:	d5385200 	mrs	x0, esr_el1
ffff00000008182c:	d35afc01 	lsr	x1, x0, #26
ffff000000081830:	f100543f 	cmp	x1, #0x15
ffff000000081834:	d2800022 	mov	x2, #0x1                   	// #1
ffff000000081838:	d2800063 	mov	x3, #0x3                   	// #3
ffff00000008183c:	9a831040 	csel	x0, x2, x3, ne	// ne = any
ffff000000081840:	d5385201 	mrs	x1, esr_el1
ffff000000081844:	a91007e0 	stp	x0, x1, [sp, #256]
ffff000000081848:	d5384020 	mrs	x0, elr_el1
ffff00000008184c:	d5384001 	mrs	x1, spsr_el1
ffff000000081850:	a91107e0 	stp	x0, x1, [sp, #272]
ffff000000081854:	910003e0 	mov	x0, sp
ffff000000081858:	940000ad 	bl	ffff000000081b0c <handler>
ffff00000008185c:	17ffffcb 	b	ffff000000081788 <trap_return>

ffff000000081860 <irq_handler>:
ffff000000081860:	d10483ff 	sub	sp, sp, #0x120
ffff000000081864:	a90007e0 	stp	x0, x1, [sp]
ffff000000081868:	a9010fe2 	stp	x2, x3, [sp, #16]
ffff00000008186c:	a90217e4 	stp	x4, x5, [sp, #32]
ffff000000081870:	a9031fe6 	stp	x6, x7, [sp, #48]
ffff000000081874:	a90427e8 	stp	x8, x9, [sp, #64]
ffff000000081878:	a9052fea 	stp	x10, x11, [sp, #80]
ffff00000008187c:	a90637ec 	stp	x12, x13, [sp, #96]
ffff000000081880:	a9073fee 	stp	x14, x15, [sp, #112]
ffff000000081884:	a90847f0 	stp	x16, x17, [sp, #128]
ffff000000081888:	a9094ff2 	stp	x18, x19, [sp, #144]
ffff00000008188c:	a90a57f4 	stp	x20, x21, [sp, #160]
ffff000000081890:	a90b5ff6 	stp	x22, x23, [sp, #176]
ffff000000081894:	a90c67f8 	stp	x24, x25, [sp, #192]
ffff000000081898:	a90d6ffa 	stp	x26, x27, [sp, #208]
ffff00000008189c:	a90e77fc 	stp	x28, x29, [sp, #224]
ffff0000000818a0:	d5384100 	mrs	x0, sp_el0
ffff0000000818a4:	a90f03fe 	stp	x30, x0, [sp, #240]
ffff0000000818a8:	d2800040 	mov	x0, #0x2                   	// #2
ffff0000000818ac:	d5385201 	mrs	x1, esr_el1
ffff0000000818b0:	a91007e0 	stp	x0, x1, [sp, #256]
ffff0000000818b4:	d5384020 	mrs	x0, elr_el1
ffff0000000818b8:	d5384001 	mrs	x1, spsr_el1
ffff0000000818bc:	a91107e0 	stp	x0, x1, [sp, #272]
ffff0000000818c0:	910003e0 	mov	x0, sp
ffff0000000818c4:	94000092 	bl	ffff000000081b0c <handler>
ffff0000000818c8:	17ffffb0 	b	ffff000000081788 <trap_return>

ffff0000000818cc <error>:
ffff0000000818cc:	d10483ff 	sub	sp, sp, #0x120
ffff0000000818d0:	a90007e0 	stp	x0, x1, [sp]
ffff0000000818d4:	a9010fe2 	stp	x2, x3, [sp, #16]
ffff0000000818d8:	a90217e4 	stp	x4, x5, [sp, #32]
ffff0000000818dc:	a9031fe6 	stp	x6, x7, [sp, #48]
ffff0000000818e0:	a90427e8 	stp	x8, x9, [sp, #64]
ffff0000000818e4:	a9052fea 	stp	x10, x11, [sp, #80]
ffff0000000818e8:	a90637ec 	stp	x12, x13, [sp, #96]
ffff0000000818ec:	a9073fee 	stp	x14, x15, [sp, #112]
ffff0000000818f0:	a90847f0 	stp	x16, x17, [sp, #128]
ffff0000000818f4:	a9094ff2 	stp	x18, x19, [sp, #144]
ffff0000000818f8:	a90a57f4 	stp	x20, x21, [sp, #160]
ffff0000000818fc:	a90b5ff6 	stp	x22, x23, [sp, #176]
ffff000000081900:	a90c67f8 	stp	x24, x25, [sp, #192]
ffff000000081904:	a90d6ffa 	stp	x26, x27, [sp, #208]
ffff000000081908:	a90e77fc 	stp	x28, x29, [sp, #224]
ffff00000008190c:	d5384100 	mrs	x0, sp_el0
ffff000000081910:	a90f03fe 	stp	x30, x0, [sp, #240]
ffff000000081914:	d2800000 	mov	x0, #0x0                   	// #0
ffff000000081918:	d5385201 	mrs	x1, esr_el1
ffff00000008191c:	a91007e0 	stp	x0, x1, [sp, #256]
ffff000000081920:	d5384020 	mrs	x0, elr_el1
ffff000000081924:	d5384001 	mrs	x1, spsr_el1
ffff000000081928:	a91107e0 	stp	x0, x1, [sp, #272]
ffff00000008192c:	910003e0 	mov	x0, sp
ffff000000081930:	94000077 	bl	ffff000000081b0c <handler>
ffff000000081934:	17ffff95 	b	ffff000000081788 <trap_return>

ffff000000081938 <read_timer_freq>:
ffff000000081938:	d53be000 	mrs	x0, cntfrq_el0
ffff00000008193c:	d65f03c0 	ret

ffff000000081940 <set_timer_interval>:
ffff000000081940:	d51be200 	msr	cntp_tval_el0, x0
ffff000000081944:	d65f03c0 	ret

ffff000000081948 <enable_timer>:
ffff000000081948:	a9bf7bfd 	stp	x29, x30, [sp, #-16]!
ffff00000008194c:	97fffffb 	bl	ffff000000081938 <read_timer_freq>
ffff000000081950:	d2800c81 	mov	x1, #0x64                  	// #100
ffff000000081954:	9ac10800 	udiv	x0, x0, x1
ffff000000081958:	97fffffa 	bl	ffff000000081940 <set_timer_interval>
ffff00000008195c:	d2800020 	mov	x0, #0x1                   	// #1
ffff000000081960:	d51be220 	msr	cntp_ctl_el0, x0
ffff000000081964:	a8c17bfd 	ldp	x29, x30, [sp], #16
ffff000000081968:	d65f03c0 	ret

ffff00000008196c <read_timer_status>:
ffff00000008196c:	d53be220 	mrs	x0, cntp_ctl_el0
ffff000000081970:	d65f03c0 	ret

ffff000000081974 <enable_irq>:
ffff000000081974:	d50342ff 	msr	daifclr, #0x2
ffff000000081978:	d65f03c0 	ret

ffff00000008197c <swap>:
ffff00000008197c:	d10183ff 	sub	sp, sp, #0x60
ffff000000081980:	a90053f3 	stp	x19, x20, [sp]
ffff000000081984:	a9015bf5 	stp	x21, x22, [sp, #16]
ffff000000081988:	a90263f7 	stp	x23, x24, [sp, #32]
ffff00000008198c:	a9036bf9 	stp	x25, x26, [sp, #48]
ffff000000081990:	a90473fb 	stp	x27, x28, [sp, #64]
ffff000000081994:	a9057bfd 	stp	x29, x30, [sp, #80]
ffff000000081998:	910003e2 	mov	x2, sp
ffff00000008199c:	f9000002 	str	x2, [x0]
ffff0000000819a0:	9100003f 	mov	sp, x1
ffff0000000819a4:	a94053f3 	ldp	x19, x20, [sp]
ffff0000000819a8:	a9415bf5 	ldp	x21, x22, [sp, #16]
ffff0000000819ac:	a94263f7 	ldp	x23, x24, [sp, #32]
ffff0000000819b0:	a9436bf9 	ldp	x25, x26, [sp, #48]
ffff0000000819b4:	a94473fb 	ldp	x27, x28, [sp, #64]
ffff0000000819b8:	a9457bfd 	ldp	x29, x30, [sp, #80]
ffff0000000819bc:	910183ff 	add	sp, sp, #0x60
ffff0000000819c0:	d65f03c0 	ret

ffff0000000819c4 <init_interrupt_controller>:
ffff0000000819c4:	a9bf7bfd 	stp	x29, x30, [sp, #-16]!
ffff0000000819c8:	910003fd 	mov	x29, sp
ffff0000000819cc:	12800001 	mov	w1, #0xffffffff            	// #-1
ffff0000000819d0:	d2964480 	mov	x0, #0xb224                	// #45604
ffff0000000819d4:	f2a7e000 	movk	x0, #0x3f00, lsl #16
ffff0000000819d8:	f2ffffe0 	movk	x0, #0xffff, lsl #48
ffff0000000819dc:	97fff9c3 	bl	ffff0000000800e8 <out_word>
ffff0000000819e0:	12800001 	mov	w1, #0xffffffff            	// #-1
ffff0000000819e4:	d2964380 	mov	x0, #0xb21c                	// #45596
ffff0000000819e8:	f2a7e000 	movk	x0, #0x3f00, lsl #16
ffff0000000819ec:	f2ffffe0 	movk	x0, #0xffff, lsl #48
ffff0000000819f0:	97fff9be 	bl	ffff0000000800e8 <out_word>
ffff0000000819f4:	12800001 	mov	w1, #0xffffffff            	// #-1
ffff0000000819f8:	d2964400 	mov	x0, #0xb220                	// #45600
ffff0000000819fc:	f2a7e000 	movk	x0, #0x3f00, lsl #16
ffff000000081a00:	f2ffffe0 	movk	x0, #0xffff, lsl #48
ffff000000081a04:	97fff9b9 	bl	ffff0000000800e8 <out_word>
ffff000000081a08:	52a04001 	mov	w1, #0x2000000             	// #33554432
ffff000000081a0c:	d2964280 	mov	x0, #0xb214                	// #45588
ffff000000081a10:	f2a7e000 	movk	x0, #0x3f00, lsl #16
ffff000000081a14:	f2ffffe0 	movk	x0, #0xffff, lsl #48
ffff000000081a18:	97fff9b4 	bl	ffff0000000800e8 <out_word>
ffff000000081a1c:	d503201f 	nop
ffff000000081a20:	a8c17bfd 	ldp	x29, x30, [sp], #16
ffff000000081a24:	d65f03c0 	ret

ffff000000081a28 <init_timer>:
ffff000000081a28:	a9bf7bfd 	stp	x29, x30, [sp, #-16]!
ffff000000081a2c:	910003fd 	mov	x29, sp
ffff000000081a30:	97ffffc2 	bl	ffff000000081938 <read_timer_freq>
ffff000000081a34:	2a0003e1 	mov	w1, w0
ffff000000081a38:	5290a3e0 	mov	w0, #0x851f                	// #34079
ffff000000081a3c:	72aa3d60 	movk	w0, #0x51eb, lsl #16
ffff000000081a40:	9ba07c20 	umull	x0, w1, w0
ffff000000081a44:	d360fc00 	lsr	x0, x0, #32
ffff000000081a48:	53057c01 	lsr	w1, w0, #5
ffff000000081a4c:	d0000060 	adrp	x0, ffff00000008f000 <font_data+0xf68>
ffff000000081a50:	913ec000 	add	x0, x0, #0xfb0
ffff000000081a54:	b9000001 	str	w1, [x0]
ffff000000081a58:	97ffffbc 	bl	ffff000000081948 <enable_timer>
ffff000000081a5c:	52800041 	mov	w1, #0x2                   	// #2
ffff000000081a60:	d2800800 	mov	x0, #0x40                  	// #64
ffff000000081a64:	f2a80000 	movk	x0, #0x4000, lsl #16
ffff000000081a68:	f2ffffe0 	movk	x0, #0xffff, lsl #48
ffff000000081a6c:	97fff99f 	bl	ffff0000000800e8 <out_word>
ffff000000081a70:	d503201f 	nop
ffff000000081a74:	a8c17bfd 	ldp	x29, x30, [sp], #16
ffff000000081a78:	d65f03c0 	ret

ffff000000081a7c <timer_interrupt_handler>:
ffff000000081a7c:	a9be7bfd 	stp	x29, x30, [sp, #-32]!
ffff000000081a80:	910003fd 	mov	x29, sp
ffff000000081a84:	97ffffba 	bl	ffff00000008196c <read_timer_status>
ffff000000081a88:	b9001fe0 	str	w0, [sp, #28]
ffff000000081a8c:	b9401fe0 	ldr	w0, [sp, #28]
ffff000000081a90:	121e0000 	and	w0, w0, #0x4
ffff000000081a94:	7100001f 	cmp	w0, #0x0
ffff000000081a98:	540001c0 	b.eq	ffff000000081ad0 <timer_interrupt_handler+0x54>  // b.none
ffff000000081a9c:	d0000060 	adrp	x0, ffff00000008f000 <font_data+0xf68>
ffff000000081aa0:	913ee000 	add	x0, x0, #0xfb8
ffff000000081aa4:	f9400000 	ldr	x0, [x0]
ffff000000081aa8:	91000401 	add	x1, x0, #0x1
ffff000000081aac:	d0000060 	adrp	x0, ffff00000008f000 <font_data+0xf68>
ffff000000081ab0:	913ee000 	add	x0, x0, #0xfb8
ffff000000081ab4:	f9000001 	str	x1, [x0]
ffff000000081ab8:	12800000 	mov	w0, #0xffffffff            	// #-1
ffff000000081abc:	940028d1 	bl	ffff00000008be00 <wake_up>
ffff000000081ac0:	d0000060 	adrp	x0, ffff00000008f000 <font_data+0xf68>
ffff000000081ac4:	913ec000 	add	x0, x0, #0xfb0
ffff000000081ac8:	b9400000 	ldr	w0, [x0]
ffff000000081acc:	97ffff9d 	bl	ffff000000081940 <set_timer_interval>
ffff000000081ad0:	d503201f 	nop
ffff000000081ad4:	a8c27bfd 	ldp	x29, x30, [sp], #32
ffff000000081ad8:	d65f03c0 	ret

ffff000000081adc <get_irq_number>:
ffff000000081adc:	a9bf7bfd 	stp	x29, x30, [sp, #-16]!
ffff000000081ae0:	910003fd 	mov	x29, sp
ffff000000081ae4:	d2964000 	mov	x0, #0xb200                	// #45568
ffff000000081ae8:	f2a7e000 	movk	x0, #0x3f00, lsl #16
ffff000000081aec:	f2ffffe0 	movk	x0, #0xffff, lsl #48
ffff000000081af0:	97fff980 	bl	ffff0000000800f0 <in_word>
ffff000000081af4:	a8c17bfd 	ldp	x29, x30, [sp], #16
ffff000000081af8:	d65f03c0 	ret

ffff000000081afc <get_ticks>:
ffff000000081afc:	d0000060 	adrp	x0, ffff00000008f000 <font_data+0xf68>
ffff000000081b00:	913ee000 	add	x0, x0, #0xfb8
ffff000000081b04:	f9400000 	ldr	x0, [x0]
ffff000000081b08:	d65f03c0 	ret

ffff000000081b0c <handler>:
ffff000000081b0c:	a9bd7bfd 	stp	x29, x30, [sp, #-48]!
ffff000000081b10:	910003fd 	mov	x29, sp
ffff000000081b14:	f9000fe0 	str	x0, [sp, #24]
ffff000000081b18:	b9002fff 	str	wzr, [sp, #44]
ffff000000081b1c:	f9400fe0 	ldr	x0, [sp, #24]
ffff000000081b20:	f9408000 	ldr	x0, [x0, #256]
ffff000000081b24:	f1000c1f 	cmp	x0, #0x3
ffff000000081b28:	54001880 	b.eq	ffff000000081e38 <handler+0x32c>  // b.none
ffff000000081b2c:	f1000c1f 	cmp	x0, #0x3
ffff000000081b30:	540018ac 	b.gt	ffff000000081e44 <handler+0x338>
ffff000000081b34:	f100041f 	cmp	x0, #0x1
ffff000000081b38:	54000080 	b.eq	ffff000000081b48 <handler+0x3c>  // b.none
ffff000000081b3c:	f100081f 	cmp	x0, #0x2
ffff000000081b40:	54001480 	b.eq	ffff000000081dd0 <handler+0x2c4>  // b.none
ffff000000081b44:	140000c0 	b	ffff000000081e44 <handler+0x338>
ffff000000081b48:	f9400fe0 	ldr	x0, [sp, #24]
ffff000000081b4c:	f9408c00 	ldr	x0, [x0, #280]
ffff000000081b50:	92400c00 	and	x0, x0, #0xf
ffff000000081b54:	f100001f 	cmp	x0, #0x0
ffff000000081b58:	540001a1 	b.ne	ffff000000081b8c <handler+0x80>  // b.any
ffff000000081b5c:	94002776 	bl	ffff00000008b934 <get_pc>
ffff000000081b60:	f90013e0 	str	x0, [sp, #32]
ffff000000081b64:	f94013e0 	ldr	x0, [sp, #32]
ffff000000081b68:	f9400000 	ldr	x0, [x0]
ffff000000081b6c:	b9400800 	ldr	w0, [x0, #8]
ffff000000081b70:	93407c00 	sxtw	x0, w0
ffff000000081b74:	aa0003e1 	mov	x1, x0
ffff000000081b78:	90000060 	adrp	x0, ffff00000008d000 <video_set_resolution+0x1fc>
ffff000000081b7c:	9137e000 	add	x0, x0, #0xdf8
ffff000000081b80:	97fffaba 	bl	ffff000000080668 <printk>
ffff000000081b84:	940028c0 	bl	ffff00000008be84 <exit>
ffff000000081b88:	140000b4 	b	ffff000000081e58 <handler+0x34c>
ffff000000081b8c:	90000060 	adrp	x0, ffff00000008d000 <video_set_resolution+0x1fc>
ffff000000081b90:	91388000 	add	x0, x0, #0xe20
ffff000000081b94:	97fffab5 	bl	ffff000000080668 <printk>
ffff000000081b98:	f9400fe0 	ldr	x0, [sp, #24]
ffff000000081b9c:	f9408801 	ldr	x1, [x0, #272]
ffff000000081ba0:	f9400fe0 	ldr	x0, [sp, #24]
ffff000000081ba4:	f9408400 	ldr	x0, [x0, #264]
ffff000000081ba8:	aa0003e2 	mov	x2, x0
ffff000000081bac:	90000060 	adrp	x0, ffff00000008d000 <video_set_resolution+0x1fc>
ffff000000081bb0:	9138a000 	add	x0, x0, #0xe28
ffff000000081bb4:	97fffaad 	bl	ffff000000080668 <printk>
ffff000000081bb8:	90000060 	adrp	x0, ffff00000008d000 <video_set_resolution+0x1fc>
ffff000000081bbc:	91390000 	add	x0, x0, #0xe40
ffff000000081bc0:	97fffaaa 	bl	ffff000000080668 <printk>
ffff000000081bc4:	f9400fe0 	ldr	x0, [sp, #24]
ffff000000081bc8:	f9400001 	ldr	x1, [x0]
ffff000000081bcc:	f9400fe0 	ldr	x0, [sp, #24]
ffff000000081bd0:	f9400400 	ldr	x0, [x0, #8]
ffff000000081bd4:	aa0003e2 	mov	x2, x0
ffff000000081bd8:	90000060 	adrp	x0, ffff00000008d000 <video_set_resolution+0x1fc>
ffff000000081bdc:	91394000 	add	x0, x0, #0xe50
ffff000000081be0:	97fffaa2 	bl	ffff000000080668 <printk>
ffff000000081be4:	f9400fe0 	ldr	x0, [sp, #24]
ffff000000081be8:	f9400801 	ldr	x1, [x0, #16]
ffff000000081bec:	f9400fe0 	ldr	x0, [sp, #24]
ffff000000081bf0:	f9400c00 	ldr	x0, [x0, #24]
ffff000000081bf4:	aa0003e2 	mov	x2, x0
ffff000000081bf8:	90000060 	adrp	x0, ffff00000008d000 <video_set_resolution+0x1fc>
ffff000000081bfc:	91398000 	add	x0, x0, #0xe60
ffff000000081c00:	97fffa9a 	bl	ffff000000080668 <printk>
ffff000000081c04:	f9400fe0 	ldr	x0, [sp, #24]
ffff000000081c08:	f9401001 	ldr	x1, [x0, #32]
ffff000000081c0c:	f9400fe0 	ldr	x0, [sp, #24]
ffff000000081c10:	f9401400 	ldr	x0, [x0, #40]
ffff000000081c14:	aa0003e2 	mov	x2, x0
ffff000000081c18:	90000060 	adrp	x0, ffff00000008d000 <video_set_resolution+0x1fc>
ffff000000081c1c:	9139c000 	add	x0, x0, #0xe70
ffff000000081c20:	97fffa92 	bl	ffff000000080668 <printk>
ffff000000081c24:	f9400fe0 	ldr	x0, [sp, #24]
ffff000000081c28:	f9401801 	ldr	x1, [x0, #48]
ffff000000081c2c:	f9400fe0 	ldr	x0, [sp, #24]
ffff000000081c30:	f9401c00 	ldr	x0, [x0, #56]
ffff000000081c34:	aa0003e2 	mov	x2, x0
ffff000000081c38:	90000060 	adrp	x0, ffff00000008d000 <video_set_resolution+0x1fc>
ffff000000081c3c:	913a0000 	add	x0, x0, #0xe80
ffff000000081c40:	97fffa8a 	bl	ffff000000080668 <printk>
ffff000000081c44:	f9400fe0 	ldr	x0, [sp, #24]
ffff000000081c48:	f9402001 	ldr	x1, [x0, #64]
ffff000000081c4c:	f9400fe0 	ldr	x0, [sp, #24]
ffff000000081c50:	f9402400 	ldr	x0, [x0, #72]
ffff000000081c54:	aa0003e2 	mov	x2, x0
ffff000000081c58:	90000060 	adrp	x0, ffff00000008d000 <video_set_resolution+0x1fc>
ffff000000081c5c:	913a4000 	add	x0, x0, #0xe90
ffff000000081c60:	97fffa82 	bl	ffff000000080668 <printk>
ffff000000081c64:	f9400fe0 	ldr	x0, [sp, #24]
ffff000000081c68:	f9402801 	ldr	x1, [x0, #80]
ffff000000081c6c:	f9400fe0 	ldr	x0, [sp, #24]
ffff000000081c70:	f9402c00 	ldr	x0, [x0, #88]
ffff000000081c74:	aa0003e2 	mov	x2, x0
ffff000000081c78:	90000060 	adrp	x0, ffff00000008d000 <video_set_resolution+0x1fc>
ffff000000081c7c:	913a8000 	add	x0, x0, #0xea0
ffff000000081c80:	97fffa7a 	bl	ffff000000080668 <printk>
ffff000000081c84:	f9400fe0 	ldr	x0, [sp, #24]
ffff000000081c88:	f9403001 	ldr	x1, [x0, #96]
ffff000000081c8c:	f9400fe0 	ldr	x0, [sp, #24]
ffff000000081c90:	f9403400 	ldr	x0, [x0, #104]
ffff000000081c94:	aa0003e2 	mov	x2, x0
ffff000000081c98:	90000060 	adrp	x0, ffff00000008d000 <video_set_resolution+0x1fc>
ffff000000081c9c:	913ae000 	add	x0, x0, #0xeb8
ffff000000081ca0:	97fffa72 	bl	ffff000000080668 <printk>
ffff000000081ca4:	f9400fe0 	ldr	x0, [sp, #24]
ffff000000081ca8:	f9403801 	ldr	x1, [x0, #112]
ffff000000081cac:	f9400fe0 	ldr	x0, [sp, #24]
ffff000000081cb0:	f9403c00 	ldr	x0, [x0, #120]
ffff000000081cb4:	aa0003e2 	mov	x2, x0
ffff000000081cb8:	90000060 	adrp	x0, ffff00000008d000 <video_set_resolution+0x1fc>
ffff000000081cbc:	913b4000 	add	x0, x0, #0xed0
ffff000000081cc0:	97fffa6a 	bl	ffff000000080668 <printk>
ffff000000081cc4:	f9400fe0 	ldr	x0, [sp, #24]
ffff000000081cc8:	f9404001 	ldr	x1, [x0, #128]
ffff000000081ccc:	f9400fe0 	ldr	x0, [sp, #24]
ffff000000081cd0:	f9404400 	ldr	x0, [x0, #136]
ffff000000081cd4:	aa0003e2 	mov	x2, x0
ffff000000081cd8:	90000060 	adrp	x0, ffff00000008d000 <video_set_resolution+0x1fc>
ffff000000081cdc:	913ba000 	add	x0, x0, #0xee8
ffff000000081ce0:	97fffa62 	bl	ffff000000080668 <printk>
ffff000000081ce4:	f9400fe0 	ldr	x0, [sp, #24]
ffff000000081ce8:	f9404801 	ldr	x1, [x0, #144]
ffff000000081cec:	f9400fe0 	ldr	x0, [sp, #24]
ffff000000081cf0:	f9404c00 	ldr	x0, [x0, #152]
ffff000000081cf4:	aa0003e2 	mov	x2, x0
ffff000000081cf8:	90000060 	adrp	x0, ffff00000008d000 <video_set_resolution+0x1fc>
ffff000000081cfc:	913c0000 	add	x0, x0, #0xf00
ffff000000081d00:	97fffa5a 	bl	ffff000000080668 <printk>
ffff000000081d04:	f9400fe0 	ldr	x0, [sp, #24]
ffff000000081d08:	f9405001 	ldr	x1, [x0, #160]
ffff000000081d0c:	f9400fe0 	ldr	x0, [sp, #24]
ffff000000081d10:	f9405400 	ldr	x0, [x0, #168]
ffff000000081d14:	aa0003e2 	mov	x2, x0
ffff000000081d18:	90000060 	adrp	x0, ffff00000008d000 <video_set_resolution+0x1fc>
ffff000000081d1c:	913c6000 	add	x0, x0, #0xf18
ffff000000081d20:	97fffa52 	bl	ffff000000080668 <printk>
ffff000000081d24:	f9400fe0 	ldr	x0, [sp, #24]
ffff000000081d28:	f9405801 	ldr	x1, [x0, #176]
ffff000000081d2c:	f9400fe0 	ldr	x0, [sp, #24]
ffff000000081d30:	f9405c00 	ldr	x0, [x0, #184]
ffff000000081d34:	aa0003e2 	mov	x2, x0
ffff000000081d38:	90000060 	adrp	x0, ffff00000008d000 <video_set_resolution+0x1fc>
ffff000000081d3c:	913cc000 	add	x0, x0, #0xf30
ffff000000081d40:	97fffa4a 	bl	ffff000000080668 <printk>
ffff000000081d44:	f9400fe0 	ldr	x0, [sp, #24]
ffff000000081d48:	f9406001 	ldr	x1, [x0, #192]
ffff000000081d4c:	f9400fe0 	ldr	x0, [sp, #24]
ffff000000081d50:	f9406400 	ldr	x0, [x0, #200]
ffff000000081d54:	aa0003e2 	mov	x2, x0
ffff000000081d58:	90000060 	adrp	x0, ffff00000008d000 <video_set_resolution+0x1fc>
ffff000000081d5c:	913d2000 	add	x0, x0, #0xf48
ffff000000081d60:	97fffa42 	bl	ffff000000080668 <printk>
ffff000000081d64:	f9400fe0 	ldr	x0, [sp, #24]
ffff000000081d68:	f9406801 	ldr	x1, [x0, #208]
ffff000000081d6c:	f9400fe0 	ldr	x0, [sp, #24]
ffff000000081d70:	f9406c00 	ldr	x0, [x0, #216]
ffff000000081d74:	aa0003e2 	mov	x2, x0
ffff000000081d78:	90000060 	adrp	x0, ffff00000008d000 <video_set_resolution+0x1fc>
ffff000000081d7c:	913d8000 	add	x0, x0, #0xf60
ffff000000081d80:	97fffa3a 	bl	ffff000000080668 <printk>
ffff000000081d84:	f9400fe0 	ldr	x0, [sp, #24]
ffff000000081d88:	f9407001 	ldr	x1, [x0, #224]
ffff000000081d8c:	f9400fe0 	ldr	x0, [sp, #24]
ffff000000081d90:	f9407400 	ldr	x0, [x0, #232]
ffff000000081d94:	aa0003e2 	mov	x2, x0
ffff000000081d98:	90000060 	adrp	x0, ffff00000008d000 <video_set_resolution+0x1fc>
ffff000000081d9c:	913de000 	add	x0, x0, #0xf78
ffff000000081da0:	97fffa32 	bl	ffff000000080668 <printk>
ffff000000081da4:	f9400fe0 	ldr	x0, [sp, #24]
ffff000000081da8:	f9407800 	ldr	x0, [x0, #240]
ffff000000081dac:	aa0003e1 	mov	x1, x0
ffff000000081db0:	90000060 	adrp	x0, ffff00000008d000 <video_set_resolution+0x1fc>
ffff000000081db4:	913e4000 	add	x0, x0, #0xf90
ffff000000081db8:	97fffa2c 	bl	ffff000000080668 <printk>
ffff000000081dbc:	90000060 	adrp	x0, ffff00000008d000 <video_set_resolution+0x1fc>
ffff000000081dc0:	91388000 	add	x0, x0, #0xe20
ffff000000081dc4:	97fffa29 	bl	ffff000000080668 <printk>
ffff000000081dc8:	d503201f 	nop
ffff000000081dcc:	17ffffff 	b	ffff000000081dc8 <handler+0x2bc>
ffff000000081dd0:	d2800c00 	mov	x0, #0x60                  	// #96
ffff000000081dd4:	f2a80000 	movk	x0, #0x4000, lsl #16
ffff000000081dd8:	f2ffffe0 	movk	x0, #0xffff, lsl #48
ffff000000081ddc:	97fff8c5 	bl	ffff0000000800f0 <in_word>
ffff000000081de0:	b9002be0 	str	w0, [sp, #40]
ffff000000081de4:	b9402be0 	ldr	w0, [sp, #40]
ffff000000081de8:	121f0000 	and	w0, w0, #0x2
ffff000000081dec:	7100001f 	cmp	w0, #0x0
ffff000000081df0:	540000a0 	b.eq	ffff000000081e04 <handler+0x2f8>  // b.none
ffff000000081df4:	97ffff22 	bl	ffff000000081a7c <timer_interrupt_handler>
ffff000000081df8:	52800020 	mov	w0, #0x1                   	// #1
ffff000000081dfc:	b9002fe0 	str	w0, [sp, #44]
ffff000000081e00:	14000016 	b	ffff000000081e58 <handler+0x34c>
ffff000000081e04:	97ffff36 	bl	ffff000000081adc <get_irq_number>
ffff000000081e08:	b9002be0 	str	w0, [sp, #40]
ffff000000081e0c:	b9402be0 	ldr	w0, [sp, #40]
ffff000000081e10:	120d0000 	and	w0, w0, #0x80000
ffff000000081e14:	7100001f 	cmp	w0, #0x0
ffff000000081e18:	54000060 	b.eq	ffff000000081e24 <handler+0x318>  // b.none
ffff000000081e1c:	97fff90f 	bl	ffff000000080258 <uart_handler>
ffff000000081e20:	1400000e 	b	ffff000000081e58 <handler+0x34c>
ffff000000081e24:	90000060 	adrp	x0, ffff00000008d000 <video_set_resolution+0x1fc>
ffff000000081e28:	913e8000 	add	x0, x0, #0xfa0
ffff000000081e2c:	97fffa0f 	bl	ffff000000080668 <printk>
ffff000000081e30:	d503201f 	nop
ffff000000081e34:	17ffffff 	b	ffff000000081e30 <handler+0x324>
ffff000000081e38:	f9400fe0 	ldr	x0, [sp, #24]
ffff000000081e3c:	940029b8 	bl	ffff00000008c51c <system_call>
ffff000000081e40:	14000006 	b	ffff000000081e58 <handler+0x34c>
ffff000000081e44:	90000060 	adrp	x0, ffff00000008d000 <video_set_resolution+0x1fc>
ffff000000081e48:	913ec000 	add	x0, x0, #0xfb0
ffff000000081e4c:	97fffa07 	bl	ffff000000080668 <printk>
ffff000000081e50:	d503201f 	nop
ffff000000081e54:	17ffffff 	b	ffff000000081e50 <handler+0x344>
ffff000000081e58:	b9402fe0 	ldr	w0, [sp, #44]
ffff000000081e5c:	7100041f 	cmp	w0, #0x1
ffff000000081e60:	54000041 	b.ne	ffff000000081e68 <handler+0x35c>  // b.any
ffff000000081e64:	940027b2 	bl	ffff00000008bd2c <yield>
ffff000000081e68:	d503201f 	nop
ffff000000081e6c:	a8c37bfd 	ldp	x29, x30, [sp], #48
ffff000000081e70:	d65f03c0 	ret
	...

ffff000000082000 <read_pgd>:
ffff000000082000:	d5382000 	mrs	x0, ttbr0_el1
ffff000000082004:	d65f03c0 	ret

ffff000000082008 <load_pgd>:
ffff000000082008:	d5182000 	msr	ttbr0_el1, x0
ffff00000008200c:	d508831f 	tlbi	vmalle1is
ffff000000082010:	d5033b9f 	dsb	ish
ffff000000082014:	d5033fdf 	isb
ffff000000082018:	d65f03c0 	ret

ffff00000008201c <enable_mmu>:
ffff00000008201c:	10007f20 	adr	x0, ffff000000083000 <pgd_ttbr1>
ffff000000082020:	d5182020 	msr	ttbr1_el1, x0
ffff000000082024:	10027ee0 	adr	x0, ffff000000087000 <pgd_ttbr0>
ffff000000082028:	d5182000 	msr	ttbr0_el1, x0
ffff00000008202c:	5803fea0 	ldr	x0, ffff00000008a000 <pmd_ttbr0+0x1000>
ffff000000082030:	d518a200 	msr	mair_el1, x0
ffff000000082034:	5803fea0 	ldr	x0, ffff00000008a008 <pmd_ttbr0+0x1008>
ffff000000082038:	d5182040 	msr	tcr_el1, x0
ffff00000008203c:	d5381000 	mrs	x0, sctlr_el1
ffff000000082040:	b2400000 	orr	x0, x0, #0x1
ffff000000082044:	d5181000 	msr	sctlr_el1, x0
ffff000000082048:	d65f03c0 	ret

ffff00000008204c <setup_vm>:
ffff00000008204c:	10007da0 	adr	x0, ffff000000083000 <pgd_ttbr1>
ffff000000082050:	1000fd81 	adr	x1, ffff000000084000 <pud_ttbr1>
ffff000000082054:	b2400421 	orr	x1, x1, #0x3
ffff000000082058:	f9000001 	str	x1, [x0]
ffff00000008205c:	1000fd20 	adr	x0, ffff000000084000 <pud_ttbr1>
ffff000000082060:	10017d01 	adr	x1, ffff000000085000 <pmd_ttbr1>
ffff000000082064:	b2400421 	orr	x1, x1, #0x3
ffff000000082068:	f9000001 	str	x1, [x0]
ffff00000008206c:	d2a80002 	mov	x2, #0x40000000            	// #1073741824
ffff000000082070:	10017c81 	adr	x1, ffff000000085000 <pmd_ttbr1>
ffff000000082074:	d28080a0 	mov	x0, #0x405                 	// #1029

ffff000000082078 <loop1>:
ffff000000082078:	f8008420 	str	x0, [x1], #8
ffff00000008207c:	91480000 	add	x0, x0, #0x200, lsl #12
ffff000000082080:	eb02001f 	cmp	x0, x2
ffff000000082084:	54ffffa3 	b.cc	ffff000000082078 <loop1>  // b.lo, b.ul, b.last
ffff000000082088:	d2a80002 	mov	x2, #0x40000000            	// #1073741824
ffff00000008208c:	d2a7e000 	mov	x0, #0x3f000000            	// #1056964608
ffff000000082090:	10017b83 	adr	x3, ffff000000085000 <pmd_ttbr1>
ffff000000082094:	d352fc01 	lsr	x1, x0, #18
ffff000000082098:	8b030021 	add	x1, x1, x3
ffff00000008209c:	b2400000 	orr	x0, x0, #0x1
ffff0000000820a0:	b2760000 	orr	x0, x0, #0x400

ffff0000000820a4 <loop2>:
ffff0000000820a4:	f8008420 	str	x0, [x1], #8
ffff0000000820a8:	91480000 	add	x0, x0, #0x200, lsl #12
ffff0000000820ac:	eb02001f 	cmp	x0, x2
ffff0000000820b0:	54ffffa3 	b.cc	ffff0000000820a4 <loop2>  // b.lo, b.ul, b.last
ffff0000000820b4:	1000fa60 	adr	x0, ffff000000084000 <pud_ttbr1>
ffff0000000820b8:	91002000 	add	x0, x0, #0x8
ffff0000000820bc:	1001fa21 	adr	x1, ffff000000086000 <pmd2_ttbr1>
ffff0000000820c0:	b2400421 	orr	x1, x1, #0x3
ffff0000000820c4:	f9000001 	str	x1, [x0]
ffff0000000820c8:	d2a82002 	mov	x2, #0x41000000            	// #1090519040
ffff0000000820cc:	d2a80000 	mov	x0, #0x40000000            	// #1073741824
ffff0000000820d0:	1001f981 	adr	x1, ffff000000086000 <pmd2_ttbr1>
ffff0000000820d4:	b2400000 	orr	x0, x0, #0x1
ffff0000000820d8:	b2760000 	orr	x0, x0, #0x400

ffff0000000820dc <loop3>:
ffff0000000820dc:	f8008420 	str	x0, [x1], #8
ffff0000000820e0:	91480000 	add	x0, x0, #0x200, lsl #12
ffff0000000820e4:	eb02001f 	cmp	x0, x2
ffff0000000820e8:	54ffffa3 	b.cc	ffff0000000820dc <loop3>  // b.lo, b.ul, b.last

ffff0000000820ec <setup_uvm>:
ffff0000000820ec:	100278a0 	adr	x0, ffff000000087000 <pgd_ttbr0>
ffff0000000820f0:	1002f881 	adr	x1, ffff000000088000 <pud_ttbr0>
ffff0000000820f4:	b2400421 	orr	x1, x1, #0x3
ffff0000000820f8:	f9000001 	str	x1, [x0]
ffff0000000820fc:	1002f820 	adr	x0, ffff000000088000 <pud_ttbr0>
ffff000000082100:	10037801 	adr	x1, ffff000000089000 <pmd_ttbr0>
ffff000000082104:	b2400421 	orr	x1, x1, #0x3
ffff000000082108:	f9000001 	str	x1, [x0]
ffff00000008210c:	100377a1 	adr	x1, ffff000000089000 <pmd_ttbr0>
ffff000000082110:	d28080a0 	mov	x0, #0x405                 	// #1029
ffff000000082114:	f9000020 	str	x0, [x1]
ffff000000082118:	d65f03c0 	ret
ffff00000008211c:	d503201f 	nop
ffff000000082120:	d503201f 	nop
ffff000000082124:	d503201f 	nop
ffff000000082128:	d503201f 	nop
ffff00000008212c:	d503201f 	nop
ffff000000082130:	d503201f 	nop
ffff000000082134:	d503201f 	nop
ffff000000082138:	d503201f 	nop
ffff00000008213c:	d503201f 	nop
ffff000000082140:	d503201f 	nop
ffff000000082144:	d503201f 	nop
ffff000000082148:	d503201f 	nop
ffff00000008214c:	d503201f 	nop
ffff000000082150:	d503201f 	nop
ffff000000082154:	d503201f 	nop
ffff000000082158:	d503201f 	nop
ffff00000008215c:	d503201f 	nop
ffff000000082160:	d503201f 	nop
ffff000000082164:	d503201f 	nop
ffff000000082168:	d503201f 	nop
ffff00000008216c:	d503201f 	nop
ffff000000082170:	d503201f 	nop
ffff000000082174:	d503201f 	nop
ffff000000082178:	d503201f 	nop
ffff00000008217c:	d503201f 	nop
ffff000000082180:	d503201f 	nop
ffff000000082184:	d503201f 	nop
ffff000000082188:	d503201f 	nop
ffff00000008218c:	d503201f 	nop
ffff000000082190:	d503201f 	nop
ffff000000082194:	d503201f 	nop
ffff000000082198:	d503201f 	nop
ffff00000008219c:	d503201f 	nop
ffff0000000821a0:	d503201f 	nop
ffff0000000821a4:	d503201f 	nop
ffff0000000821a8:	d503201f 	nop
ffff0000000821ac:	d503201f 	nop
ffff0000000821b0:	d503201f 	nop
ffff0000000821b4:	d503201f 	nop
ffff0000000821b8:	d503201f 	nop
ffff0000000821bc:	d503201f 	nop
ffff0000000821c0:	d503201f 	nop
ffff0000000821c4:	d503201f 	nop
ffff0000000821c8:	d503201f 	nop
ffff0000000821cc:	d503201f 	nop
ffff0000000821d0:	d503201f 	nop
ffff0000000821d4:	d503201f 	nop
ffff0000000821d8:	d503201f 	nop
ffff0000000821dc:	d503201f 	nop
ffff0000000821e0:	d503201f 	nop
ffff0000000821e4:	d503201f 	nop
ffff0000000821e8:	d503201f 	nop
ffff0000000821ec:	d503201f 	nop
ffff0000000821f0:	d503201f 	nop
ffff0000000821f4:	d503201f 	nop
ffff0000000821f8:	d503201f 	nop
ffff0000000821fc:	d503201f 	nop
ffff000000082200:	d503201f 	nop
ffff000000082204:	d503201f 	nop
ffff000000082208:	d503201f 	nop
ffff00000008220c:	d503201f 	nop
ffff000000082210:	d503201f 	nop
ffff000000082214:	d503201f 	nop
ffff000000082218:	d503201f 	nop
ffff00000008221c:	d503201f 	nop
ffff000000082220:	d503201f 	nop
ffff000000082224:	d503201f 	nop
ffff000000082228:	d503201f 	nop
ffff00000008222c:	d503201f 	nop
ffff000000082230:	d503201f 	nop
ffff000000082234:	d503201f 	nop
ffff000000082238:	d503201f 	nop
ffff00000008223c:	d503201f 	nop
ffff000000082240:	d503201f 	nop
ffff000000082244:	d503201f 	nop
ffff000000082248:	d503201f 	nop
ffff00000008224c:	d503201f 	nop
ffff000000082250:	d503201f 	nop
ffff000000082254:	d503201f 	nop
ffff000000082258:	d503201f 	nop
ffff00000008225c:	d503201f 	nop
ffff000000082260:	d503201f 	nop
ffff000000082264:	d503201f 	nop
ffff000000082268:	d503201f 	nop
ffff00000008226c:	d503201f 	nop
ffff000000082270:	d503201f 	nop
ffff000000082274:	d503201f 	nop
ffff000000082278:	d503201f 	nop
ffff00000008227c:	d503201f 	nop
ffff000000082280:	d503201f 	nop
ffff000000082284:	d503201f 	nop
ffff000000082288:	d503201f 	nop
ffff00000008228c:	d503201f 	nop
ffff000000082290:	d503201f 	nop
ffff000000082294:	d503201f 	nop
ffff000000082298:	d503201f 	nop
ffff00000008229c:	d503201f 	nop
ffff0000000822a0:	d503201f 	nop
ffff0000000822a4:	d503201f 	nop
ffff0000000822a8:	d503201f 	nop
ffff0000000822ac:	d503201f 	nop
ffff0000000822b0:	d503201f 	nop
ffff0000000822b4:	d503201f 	nop
ffff0000000822b8:	d503201f 	nop
ffff0000000822bc:	d503201f 	nop
ffff0000000822c0:	d503201f 	nop
ffff0000000822c4:	d503201f 	nop
ffff0000000822c8:	d503201f 	nop
ffff0000000822cc:	d503201f 	nop
ffff0000000822d0:	d503201f 	nop
ffff0000000822d4:	d503201f 	nop
ffff0000000822d8:	d503201f 	nop
ffff0000000822dc:	d503201f 	nop
ffff0000000822e0:	d503201f 	nop
ffff0000000822e4:	d503201f 	nop
ffff0000000822e8:	d503201f 	nop
ffff0000000822ec:	d503201f 	nop
ffff0000000822f0:	d503201f 	nop
ffff0000000822f4:	d503201f 	nop
ffff0000000822f8:	d503201f 	nop
ffff0000000822fc:	d503201f 	nop
ffff000000082300:	d503201f 	nop
ffff000000082304:	d503201f 	nop
ffff000000082308:	d503201f 	nop
ffff00000008230c:	d503201f 	nop
ffff000000082310:	d503201f 	nop
ffff000000082314:	d503201f 	nop
ffff000000082318:	d503201f 	nop
ffff00000008231c:	d503201f 	nop
ffff000000082320:	d503201f 	nop
ffff000000082324:	d503201f 	nop
ffff000000082328:	d503201f 	nop
ffff00000008232c:	d503201f 	nop
ffff000000082330:	d503201f 	nop
ffff000000082334:	d503201f 	nop
ffff000000082338:	d503201f 	nop
ffff00000008233c:	d503201f 	nop
ffff000000082340:	d503201f 	nop
ffff000000082344:	d503201f 	nop
ffff000000082348:	d503201f 	nop
ffff00000008234c:	d503201f 	nop
ffff000000082350:	d503201f 	nop
ffff000000082354:	d503201f 	nop
ffff000000082358:	d503201f 	nop
ffff00000008235c:	d503201f 	nop
ffff000000082360:	d503201f 	nop
ffff000000082364:	d503201f 	nop
ffff000000082368:	d503201f 	nop
ffff00000008236c:	d503201f 	nop
ffff000000082370:	d503201f 	nop
ffff000000082374:	d503201f 	nop
ffff000000082378:	d503201f 	nop
ffff00000008237c:	d503201f 	nop
ffff000000082380:	d503201f 	nop
ffff000000082384:	d503201f 	nop
ffff000000082388:	d503201f 	nop
ffff00000008238c:	d503201f 	nop
ffff000000082390:	d503201f 	nop
ffff000000082394:	d503201f 	nop
ffff000000082398:	d503201f 	nop
ffff00000008239c:	d503201f 	nop
ffff0000000823a0:	d503201f 	nop
ffff0000000823a4:	d503201f 	nop
ffff0000000823a8:	d503201f 	nop
ffff0000000823ac:	d503201f 	nop
ffff0000000823b0:	d503201f 	nop
ffff0000000823b4:	d503201f 	nop
ffff0000000823b8:	d503201f 	nop
ffff0000000823bc:	d503201f 	nop
ffff0000000823c0:	d503201f 	nop
ffff0000000823c4:	d503201f 	nop
ffff0000000823c8:	d503201f 	nop
ffff0000000823cc:	d503201f 	nop
ffff0000000823d0:	d503201f 	nop
ffff0000000823d4:	d503201f 	nop
ffff0000000823d8:	d503201f 	nop
ffff0000000823dc:	d503201f 	nop
ffff0000000823e0:	d503201f 	nop
ffff0000000823e4:	d503201f 	nop
ffff0000000823e8:	d503201f 	nop
ffff0000000823ec:	d503201f 	nop
ffff0000000823f0:	d503201f 	nop
ffff0000000823f4:	d503201f 	nop
ffff0000000823f8:	d503201f 	nop
ffff0000000823fc:	d503201f 	nop
ffff000000082400:	d503201f 	nop
ffff000000082404:	d503201f 	nop
ffff000000082408:	d503201f 	nop
ffff00000008240c:	d503201f 	nop
ffff000000082410:	d503201f 	nop
ffff000000082414:	d503201f 	nop
ffff000000082418:	d503201f 	nop
ffff00000008241c:	d503201f 	nop
ffff000000082420:	d503201f 	nop
ffff000000082424:	d503201f 	nop
ffff000000082428:	d503201f 	nop
ffff00000008242c:	d503201f 	nop
ffff000000082430:	d503201f 	nop
ffff000000082434:	d503201f 	nop
ffff000000082438:	d503201f 	nop
ffff00000008243c:	d503201f 	nop
ffff000000082440:	d503201f 	nop
ffff000000082444:	d503201f 	nop
ffff000000082448:	d503201f 	nop
ffff00000008244c:	d503201f 	nop
ffff000000082450:	d503201f 	nop
ffff000000082454:	d503201f 	nop
ffff000000082458:	d503201f 	nop
ffff00000008245c:	d503201f 	nop
ffff000000082460:	d503201f 	nop
ffff000000082464:	d503201f 	nop
ffff000000082468:	d503201f 	nop
ffff00000008246c:	d503201f 	nop
ffff000000082470:	d503201f 	nop
ffff000000082474:	d503201f 	nop
ffff000000082478:	d503201f 	nop
ffff00000008247c:	d503201f 	nop
ffff000000082480:	d503201f 	nop
ffff000000082484:	d503201f 	nop
ffff000000082488:	d503201f 	nop
ffff00000008248c:	d503201f 	nop
ffff000000082490:	d503201f 	nop
ffff000000082494:	d503201f 	nop
ffff000000082498:	d503201f 	nop
ffff00000008249c:	d503201f 	nop
ffff0000000824a0:	d503201f 	nop
ffff0000000824a4:	d503201f 	nop
ffff0000000824a8:	d503201f 	nop
ffff0000000824ac:	d503201f 	nop
ffff0000000824b0:	d503201f 	nop
ffff0000000824b4:	d503201f 	nop
ffff0000000824b8:	d503201f 	nop
ffff0000000824bc:	d503201f 	nop
ffff0000000824c0:	d503201f 	nop
ffff0000000824c4:	d503201f 	nop
ffff0000000824c8:	d503201f 	nop
ffff0000000824cc:	d503201f 	nop
ffff0000000824d0:	d503201f 	nop
ffff0000000824d4:	d503201f 	nop
ffff0000000824d8:	d503201f 	nop
ffff0000000824dc:	d503201f 	nop
ffff0000000824e0:	d503201f 	nop
ffff0000000824e4:	d503201f 	nop
ffff0000000824e8:	d503201f 	nop
ffff0000000824ec:	d503201f 	nop
ffff0000000824f0:	d503201f 	nop
ffff0000000824f4:	d503201f 	nop
ffff0000000824f8:	d503201f 	nop
ffff0000000824fc:	d503201f 	nop
ffff000000082500:	d503201f 	nop
ffff000000082504:	d503201f 	nop
ffff000000082508:	d503201f 	nop
ffff00000008250c:	d503201f 	nop
ffff000000082510:	d503201f 	nop
ffff000000082514:	d503201f 	nop
ffff000000082518:	d503201f 	nop
ffff00000008251c:	d503201f 	nop
ffff000000082520:	d503201f 	nop
ffff000000082524:	d503201f 	nop
ffff000000082528:	d503201f 	nop
ffff00000008252c:	d503201f 	nop
ffff000000082530:	d503201f 	nop
ffff000000082534:	d503201f 	nop
ffff000000082538:	d503201f 	nop
ffff00000008253c:	d503201f 	nop
ffff000000082540:	d503201f 	nop
ffff000000082544:	d503201f 	nop
ffff000000082548:	d503201f 	nop
ffff00000008254c:	d503201f 	nop
ffff000000082550:	d503201f 	nop
ffff000000082554:	d503201f 	nop
ffff000000082558:	d503201f 	nop
ffff00000008255c:	d503201f 	nop
ffff000000082560:	d503201f 	nop
ffff000000082564:	d503201f 	nop
ffff000000082568:	d503201f 	nop
ffff00000008256c:	d503201f 	nop
ffff000000082570:	d503201f 	nop
ffff000000082574:	d503201f 	nop
ffff000000082578:	d503201f 	nop
ffff00000008257c:	d503201f 	nop
ffff000000082580:	d503201f 	nop
ffff000000082584:	d503201f 	nop
ffff000000082588:	d503201f 	nop
ffff00000008258c:	d503201f 	nop
ffff000000082590:	d503201f 	nop
ffff000000082594:	d503201f 	nop
ffff000000082598:	d503201f 	nop
ffff00000008259c:	d503201f 	nop
ffff0000000825a0:	d503201f 	nop
ffff0000000825a4:	d503201f 	nop
ffff0000000825a8:	d503201f 	nop
ffff0000000825ac:	d503201f 	nop
ffff0000000825b0:	d503201f 	nop
ffff0000000825b4:	d503201f 	nop
ffff0000000825b8:	d503201f 	nop
ffff0000000825bc:	d503201f 	nop
ffff0000000825c0:	d503201f 	nop
ffff0000000825c4:	d503201f 	nop
ffff0000000825c8:	d503201f 	nop
ffff0000000825cc:	d503201f 	nop
ffff0000000825d0:	d503201f 	nop
ffff0000000825d4:	d503201f 	nop
ffff0000000825d8:	d503201f 	nop
ffff0000000825dc:	d503201f 	nop
ffff0000000825e0:	d503201f 	nop
ffff0000000825e4:	d503201f 	nop
ffff0000000825e8:	d503201f 	nop
ffff0000000825ec:	d503201f 	nop
ffff0000000825f0:	d503201f 	nop
ffff0000000825f4:	d503201f 	nop
ffff0000000825f8:	d503201f 	nop
ffff0000000825fc:	d503201f 	nop
ffff000000082600:	d503201f 	nop
ffff000000082604:	d503201f 	nop
ffff000000082608:	d503201f 	nop
ffff00000008260c:	d503201f 	nop
ffff000000082610:	d503201f 	nop
ffff000000082614:	d503201f 	nop
ffff000000082618:	d503201f 	nop
ffff00000008261c:	d503201f 	nop
ffff000000082620:	d503201f 	nop
ffff000000082624:	d503201f 	nop
ffff000000082628:	d503201f 	nop
ffff00000008262c:	d503201f 	nop
ffff000000082630:	d503201f 	nop
ffff000000082634:	d503201f 	nop
ffff000000082638:	d503201f 	nop
ffff00000008263c:	d503201f 	nop
ffff000000082640:	d503201f 	nop
ffff000000082644:	d503201f 	nop
ffff000000082648:	d503201f 	nop
ffff00000008264c:	d503201f 	nop
ffff000000082650:	d503201f 	nop
ffff000000082654:	d503201f 	nop
ffff000000082658:	d503201f 	nop
ffff00000008265c:	d503201f 	nop
ffff000000082660:	d503201f 	nop
ffff000000082664:	d503201f 	nop
ffff000000082668:	d503201f 	nop
ffff00000008266c:	d503201f 	nop
ffff000000082670:	d503201f 	nop
ffff000000082674:	d503201f 	nop
ffff000000082678:	d503201f 	nop
ffff00000008267c:	d503201f 	nop
ffff000000082680:	d503201f 	nop
ffff000000082684:	d503201f 	nop
ffff000000082688:	d503201f 	nop
ffff00000008268c:	d503201f 	nop
ffff000000082690:	d503201f 	nop
ffff000000082694:	d503201f 	nop
ffff000000082698:	d503201f 	nop
ffff00000008269c:	d503201f 	nop
ffff0000000826a0:	d503201f 	nop
ffff0000000826a4:	d503201f 	nop
ffff0000000826a8:	d503201f 	nop
ffff0000000826ac:	d503201f 	nop
ffff0000000826b0:	d503201f 	nop
ffff0000000826b4:	d503201f 	nop
ffff0000000826b8:	d503201f 	nop
ffff0000000826bc:	d503201f 	nop
ffff0000000826c0:	d503201f 	nop
ffff0000000826c4:	d503201f 	nop
ffff0000000826c8:	d503201f 	nop
ffff0000000826cc:	d503201f 	nop
ffff0000000826d0:	d503201f 	nop
ffff0000000826d4:	d503201f 	nop
ffff0000000826d8:	d503201f 	nop
ffff0000000826dc:	d503201f 	nop
ffff0000000826e0:	d503201f 	nop
ffff0000000826e4:	d503201f 	nop
ffff0000000826e8:	d503201f 	nop
ffff0000000826ec:	d503201f 	nop
ffff0000000826f0:	d503201f 	nop
ffff0000000826f4:	d503201f 	nop
ffff0000000826f8:	d503201f 	nop
ffff0000000826fc:	d503201f 	nop
ffff000000082700:	d503201f 	nop
ffff000000082704:	d503201f 	nop
ffff000000082708:	d503201f 	nop
ffff00000008270c:	d503201f 	nop
ffff000000082710:	d503201f 	nop
ffff000000082714:	d503201f 	nop
ffff000000082718:	d503201f 	nop
ffff00000008271c:	d503201f 	nop
ffff000000082720:	d503201f 	nop
ffff000000082724:	d503201f 	nop
ffff000000082728:	d503201f 	nop
ffff00000008272c:	d503201f 	nop
ffff000000082730:	d503201f 	nop
ffff000000082734:	d503201f 	nop
ffff000000082738:	d503201f 	nop
ffff00000008273c:	d503201f 	nop
ffff000000082740:	d503201f 	nop
ffff000000082744:	d503201f 	nop
ffff000000082748:	d503201f 	nop
ffff00000008274c:	d503201f 	nop
ffff000000082750:	d503201f 	nop
ffff000000082754:	d503201f 	nop
ffff000000082758:	d503201f 	nop
ffff00000008275c:	d503201f 	nop
ffff000000082760:	d503201f 	nop
ffff000000082764:	d503201f 	nop
ffff000000082768:	d503201f 	nop
ffff00000008276c:	d503201f 	nop
ffff000000082770:	d503201f 	nop
ffff000000082774:	d503201f 	nop
ffff000000082778:	d503201f 	nop
ffff00000008277c:	d503201f 	nop
ffff000000082780:	d503201f 	nop
ffff000000082784:	d503201f 	nop
ffff000000082788:	d503201f 	nop
ffff00000008278c:	d503201f 	nop
ffff000000082790:	d503201f 	nop
ffff000000082794:	d503201f 	nop
ffff000000082798:	d503201f 	nop
ffff00000008279c:	d503201f 	nop
ffff0000000827a0:	d503201f 	nop
ffff0000000827a4:	d503201f 	nop
ffff0000000827a8:	d503201f 	nop
ffff0000000827ac:	d503201f 	nop
ffff0000000827b0:	d503201f 	nop
ffff0000000827b4:	d503201f 	nop
ffff0000000827b8:	d503201f 	nop
ffff0000000827bc:	d503201f 	nop
ffff0000000827c0:	d503201f 	nop
ffff0000000827c4:	d503201f 	nop
ffff0000000827c8:	d503201f 	nop
ffff0000000827cc:	d503201f 	nop
ffff0000000827d0:	d503201f 	nop
ffff0000000827d4:	d503201f 	nop
ffff0000000827d8:	d503201f 	nop
ffff0000000827dc:	d503201f 	nop
ffff0000000827e0:	d503201f 	nop
ffff0000000827e4:	d503201f 	nop
ffff0000000827e8:	d503201f 	nop
ffff0000000827ec:	d503201f 	nop
ffff0000000827f0:	d503201f 	nop
ffff0000000827f4:	d503201f 	nop
ffff0000000827f8:	d503201f 	nop
ffff0000000827fc:	d503201f 	nop
ffff000000082800:	d503201f 	nop
ffff000000082804:	d503201f 	nop
ffff000000082808:	d503201f 	nop
ffff00000008280c:	d503201f 	nop
ffff000000082810:	d503201f 	nop
ffff000000082814:	d503201f 	nop
ffff000000082818:	d503201f 	nop
ffff00000008281c:	d503201f 	nop
ffff000000082820:	d503201f 	nop
ffff000000082824:	d503201f 	nop
ffff000000082828:	d503201f 	nop
ffff00000008282c:	d503201f 	nop
ffff000000082830:	d503201f 	nop
ffff000000082834:	d503201f 	nop
ffff000000082838:	d503201f 	nop
ffff00000008283c:	d503201f 	nop
ffff000000082840:	d503201f 	nop
ffff000000082844:	d503201f 	nop
ffff000000082848:	d503201f 	nop
ffff00000008284c:	d503201f 	nop
ffff000000082850:	d503201f 	nop
ffff000000082854:	d503201f 	nop
ffff000000082858:	d503201f 	nop
ffff00000008285c:	d503201f 	nop
ffff000000082860:	d503201f 	nop
ffff000000082864:	d503201f 	nop
ffff000000082868:	d503201f 	nop
ffff00000008286c:	d503201f 	nop
ffff000000082870:	d503201f 	nop
ffff000000082874:	d503201f 	nop
ffff000000082878:	d503201f 	nop
ffff00000008287c:	d503201f 	nop
ffff000000082880:	d503201f 	nop
ffff000000082884:	d503201f 	nop
ffff000000082888:	d503201f 	nop
ffff00000008288c:	d503201f 	nop
ffff000000082890:	d503201f 	nop
ffff000000082894:	d503201f 	nop
ffff000000082898:	d503201f 	nop
ffff00000008289c:	d503201f 	nop
ffff0000000828a0:	d503201f 	nop
ffff0000000828a4:	d503201f 	nop
ffff0000000828a8:	d503201f 	nop
ffff0000000828ac:	d503201f 	nop
ffff0000000828b0:	d503201f 	nop
ffff0000000828b4:	d503201f 	nop
ffff0000000828b8:	d503201f 	nop
ffff0000000828bc:	d503201f 	nop
ffff0000000828c0:	d503201f 	nop
ffff0000000828c4:	d503201f 	nop
ffff0000000828c8:	d503201f 	nop
ffff0000000828cc:	d503201f 	nop
ffff0000000828d0:	d503201f 	nop
ffff0000000828d4:	d503201f 	nop
ffff0000000828d8:	d503201f 	nop
ffff0000000828dc:	d503201f 	nop
ffff0000000828e0:	d503201f 	nop
ffff0000000828e4:	d503201f 	nop
ffff0000000828e8:	d503201f 	nop
ffff0000000828ec:	d503201f 	nop
ffff0000000828f0:	d503201f 	nop
ffff0000000828f4:	d503201f 	nop
ffff0000000828f8:	d503201f 	nop
ffff0000000828fc:	d503201f 	nop
ffff000000082900:	d503201f 	nop
ffff000000082904:	d503201f 	nop
ffff000000082908:	d503201f 	nop
ffff00000008290c:	d503201f 	nop
ffff000000082910:	d503201f 	nop
ffff000000082914:	d503201f 	nop
ffff000000082918:	d503201f 	nop
ffff00000008291c:	d503201f 	nop
ffff000000082920:	d503201f 	nop
ffff000000082924:	d503201f 	nop
ffff000000082928:	d503201f 	nop
ffff00000008292c:	d503201f 	nop
ffff000000082930:	d503201f 	nop
ffff000000082934:	d503201f 	nop
ffff000000082938:	d503201f 	nop
ffff00000008293c:	d503201f 	nop
ffff000000082940:	d503201f 	nop
ffff000000082944:	d503201f 	nop
ffff000000082948:	d503201f 	nop
ffff00000008294c:	d503201f 	nop
ffff000000082950:	d503201f 	nop
ffff000000082954:	d503201f 	nop
ffff000000082958:	d503201f 	nop
ffff00000008295c:	d503201f 	nop
ffff000000082960:	d503201f 	nop
ffff000000082964:	d503201f 	nop
ffff000000082968:	d503201f 	nop
ffff00000008296c:	d503201f 	nop
ffff000000082970:	d503201f 	nop
ffff000000082974:	d503201f 	nop
ffff000000082978:	d503201f 	nop
ffff00000008297c:	d503201f 	nop
ffff000000082980:	d503201f 	nop
ffff000000082984:	d503201f 	nop
ffff000000082988:	d503201f 	nop
ffff00000008298c:	d503201f 	nop
ffff000000082990:	d503201f 	nop
ffff000000082994:	d503201f 	nop
ffff000000082998:	d503201f 	nop
ffff00000008299c:	d503201f 	nop
ffff0000000829a0:	d503201f 	nop
ffff0000000829a4:	d503201f 	nop
ffff0000000829a8:	d503201f 	nop
ffff0000000829ac:	d503201f 	nop
ffff0000000829b0:	d503201f 	nop
ffff0000000829b4:	d503201f 	nop
ffff0000000829b8:	d503201f 	nop
ffff0000000829bc:	d503201f 	nop
ffff0000000829c0:	d503201f 	nop
ffff0000000829c4:	d503201f 	nop
ffff0000000829c8:	d503201f 	nop
ffff0000000829cc:	d503201f 	nop
ffff0000000829d0:	d503201f 	nop
ffff0000000829d4:	d503201f 	nop
ffff0000000829d8:	d503201f 	nop
ffff0000000829dc:	d503201f 	nop
ffff0000000829e0:	d503201f 	nop
ffff0000000829e4:	d503201f 	nop
ffff0000000829e8:	d503201f 	nop
ffff0000000829ec:	d503201f 	nop
ffff0000000829f0:	d503201f 	nop
ffff0000000829f4:	d503201f 	nop
ffff0000000829f8:	d503201f 	nop
ffff0000000829fc:	d503201f 	nop
ffff000000082a00:	d503201f 	nop
ffff000000082a04:	d503201f 	nop
ffff000000082a08:	d503201f 	nop
ffff000000082a0c:	d503201f 	nop
ffff000000082a10:	d503201f 	nop
ffff000000082a14:	d503201f 	nop
ffff000000082a18:	d503201f 	nop
ffff000000082a1c:	d503201f 	nop
ffff000000082a20:	d503201f 	nop
ffff000000082a24:	d503201f 	nop
ffff000000082a28:	d503201f 	nop
ffff000000082a2c:	d503201f 	nop
ffff000000082a30:	d503201f 	nop
ffff000000082a34:	d503201f 	nop
ffff000000082a38:	d503201f 	nop
ffff000000082a3c:	d503201f 	nop
ffff000000082a40:	d503201f 	nop
ffff000000082a44:	d503201f 	nop
ffff000000082a48:	d503201f 	nop
ffff000000082a4c:	d503201f 	nop
ffff000000082a50:	d503201f 	nop
ffff000000082a54:	d503201f 	nop
ffff000000082a58:	d503201f 	nop
ffff000000082a5c:	d503201f 	nop
ffff000000082a60:	d503201f 	nop
ffff000000082a64:	d503201f 	nop
ffff000000082a68:	d503201f 	nop
ffff000000082a6c:	d503201f 	nop
ffff000000082a70:	d503201f 	nop
ffff000000082a74:	d503201f 	nop
ffff000000082a78:	d503201f 	nop
ffff000000082a7c:	d503201f 	nop
ffff000000082a80:	d503201f 	nop
ffff000000082a84:	d503201f 	nop
ffff000000082a88:	d503201f 	nop
ffff000000082a8c:	d503201f 	nop
ffff000000082a90:	d503201f 	nop
ffff000000082a94:	d503201f 	nop
ffff000000082a98:	d503201f 	nop
ffff000000082a9c:	d503201f 	nop
ffff000000082aa0:	d503201f 	nop
ffff000000082aa4:	d503201f 	nop
ffff000000082aa8:	d503201f 	nop
ffff000000082aac:	d503201f 	nop
ffff000000082ab0:	d503201f 	nop
ffff000000082ab4:	d503201f 	nop
ffff000000082ab8:	d503201f 	nop
ffff000000082abc:	d503201f 	nop
ffff000000082ac0:	d503201f 	nop
ffff000000082ac4:	d503201f 	nop
ffff000000082ac8:	d503201f 	nop
ffff000000082acc:	d503201f 	nop
ffff000000082ad0:	d503201f 	nop
ffff000000082ad4:	d503201f 	nop
ffff000000082ad8:	d503201f 	nop
ffff000000082adc:	d503201f 	nop
ffff000000082ae0:	d503201f 	nop
ffff000000082ae4:	d503201f 	nop
ffff000000082ae8:	d503201f 	nop
ffff000000082aec:	d503201f 	nop
ffff000000082af0:	d503201f 	nop
ffff000000082af4:	d503201f 	nop
ffff000000082af8:	d503201f 	nop
ffff000000082afc:	d503201f 	nop
ffff000000082b00:	d503201f 	nop
ffff000000082b04:	d503201f 	nop
ffff000000082b08:	d503201f 	nop
ffff000000082b0c:	d503201f 	nop
ffff000000082b10:	d503201f 	nop
ffff000000082b14:	d503201f 	nop
ffff000000082b18:	d503201f 	nop
ffff000000082b1c:	d503201f 	nop
ffff000000082b20:	d503201f 	nop
ffff000000082b24:	d503201f 	nop
ffff000000082b28:	d503201f 	nop
ffff000000082b2c:	d503201f 	nop
ffff000000082b30:	d503201f 	nop
ffff000000082b34:	d503201f 	nop
ffff000000082b38:	d503201f 	nop
ffff000000082b3c:	d503201f 	nop
ffff000000082b40:	d503201f 	nop
ffff000000082b44:	d503201f 	nop
ffff000000082b48:	d503201f 	nop
ffff000000082b4c:	d503201f 	nop
ffff000000082b50:	d503201f 	nop
ffff000000082b54:	d503201f 	nop
ffff000000082b58:	d503201f 	nop
ffff000000082b5c:	d503201f 	nop
ffff000000082b60:	d503201f 	nop
ffff000000082b64:	d503201f 	nop
ffff000000082b68:	d503201f 	nop
ffff000000082b6c:	d503201f 	nop
ffff000000082b70:	d503201f 	nop
ffff000000082b74:	d503201f 	nop
ffff000000082b78:	d503201f 	nop
ffff000000082b7c:	d503201f 	nop
ffff000000082b80:	d503201f 	nop
ffff000000082b84:	d503201f 	nop
ffff000000082b88:	d503201f 	nop
ffff000000082b8c:	d503201f 	nop
ffff000000082b90:	d503201f 	nop
ffff000000082b94:	d503201f 	nop
ffff000000082b98:	d503201f 	nop
ffff000000082b9c:	d503201f 	nop
ffff000000082ba0:	d503201f 	nop
ffff000000082ba4:	d503201f 	nop
ffff000000082ba8:	d503201f 	nop
ffff000000082bac:	d503201f 	nop
ffff000000082bb0:	d503201f 	nop
ffff000000082bb4:	d503201f 	nop
ffff000000082bb8:	d503201f 	nop
ffff000000082bbc:	d503201f 	nop
ffff000000082bc0:	d503201f 	nop
ffff000000082bc4:	d503201f 	nop
ffff000000082bc8:	d503201f 	nop
ffff000000082bcc:	d503201f 	nop
ffff000000082bd0:	d503201f 	nop
ffff000000082bd4:	d503201f 	nop
ffff000000082bd8:	d503201f 	nop
ffff000000082bdc:	d503201f 	nop
ffff000000082be0:	d503201f 	nop
ffff000000082be4:	d503201f 	nop
ffff000000082be8:	d503201f 	nop
ffff000000082bec:	d503201f 	nop
ffff000000082bf0:	d503201f 	nop
ffff000000082bf4:	d503201f 	nop
ffff000000082bf8:	d503201f 	nop
ffff000000082bfc:	d503201f 	nop
ffff000000082c00:	d503201f 	nop
ffff000000082c04:	d503201f 	nop
ffff000000082c08:	d503201f 	nop
ffff000000082c0c:	d503201f 	nop
ffff000000082c10:	d503201f 	nop
ffff000000082c14:	d503201f 	nop
ffff000000082c18:	d503201f 	nop
ffff000000082c1c:	d503201f 	nop
ffff000000082c20:	d503201f 	nop
ffff000000082c24:	d503201f 	nop
ffff000000082c28:	d503201f 	nop
ffff000000082c2c:	d503201f 	nop
ffff000000082c30:	d503201f 	nop
ffff000000082c34:	d503201f 	nop
ffff000000082c38:	d503201f 	nop
ffff000000082c3c:	d503201f 	nop
ffff000000082c40:	d503201f 	nop
ffff000000082c44:	d503201f 	nop
ffff000000082c48:	d503201f 	nop
ffff000000082c4c:	d503201f 	nop
ffff000000082c50:	d503201f 	nop
ffff000000082c54:	d503201f 	nop
ffff000000082c58:	d503201f 	nop
ffff000000082c5c:	d503201f 	nop
ffff000000082c60:	d503201f 	nop
ffff000000082c64:	d503201f 	nop
ffff000000082c68:	d503201f 	nop
ffff000000082c6c:	d503201f 	nop
ffff000000082c70:	d503201f 	nop
ffff000000082c74:	d503201f 	nop
ffff000000082c78:	d503201f 	nop
ffff000000082c7c:	d503201f 	nop
ffff000000082c80:	d503201f 	nop
ffff000000082c84:	d503201f 	nop
ffff000000082c88:	d503201f 	nop
ffff000000082c8c:	d503201f 	nop
ffff000000082c90:	d503201f 	nop
ffff000000082c94:	d503201f 	nop
ffff000000082c98:	d503201f 	nop
ffff000000082c9c:	d503201f 	nop
ffff000000082ca0:	d503201f 	nop
ffff000000082ca4:	d503201f 	nop
ffff000000082ca8:	d503201f 	nop
ffff000000082cac:	d503201f 	nop
ffff000000082cb0:	d503201f 	nop
ffff000000082cb4:	d503201f 	nop
ffff000000082cb8:	d503201f 	nop
ffff000000082cbc:	d503201f 	nop
ffff000000082cc0:	d503201f 	nop
ffff000000082cc4:	d503201f 	nop
ffff000000082cc8:	d503201f 	nop
ffff000000082ccc:	d503201f 	nop
ffff000000082cd0:	d503201f 	nop
ffff000000082cd4:	d503201f 	nop
ffff000000082cd8:	d503201f 	nop
ffff000000082cdc:	d503201f 	nop
ffff000000082ce0:	d503201f 	nop
ffff000000082ce4:	d503201f 	nop
ffff000000082ce8:	d503201f 	nop
ffff000000082cec:	d503201f 	nop
ffff000000082cf0:	d503201f 	nop
ffff000000082cf4:	d503201f 	nop
ffff000000082cf8:	d503201f 	nop
ffff000000082cfc:	d503201f 	nop
ffff000000082d00:	d503201f 	nop
ffff000000082d04:	d503201f 	nop
ffff000000082d08:	d503201f 	nop
ffff000000082d0c:	d503201f 	nop
ffff000000082d10:	d503201f 	nop
ffff000000082d14:	d503201f 	nop
ffff000000082d18:	d503201f 	nop
ffff000000082d1c:	d503201f 	nop
ffff000000082d20:	d503201f 	nop
ffff000000082d24:	d503201f 	nop
ffff000000082d28:	d503201f 	nop
ffff000000082d2c:	d503201f 	nop
ffff000000082d30:	d503201f 	nop
ffff000000082d34:	d503201f 	nop
ffff000000082d38:	d503201f 	nop
ffff000000082d3c:	d503201f 	nop
ffff000000082d40:	d503201f 	nop
ffff000000082d44:	d503201f 	nop
ffff000000082d48:	d503201f 	nop
ffff000000082d4c:	d503201f 	nop
ffff000000082d50:	d503201f 	nop
ffff000000082d54:	d503201f 	nop
ffff000000082d58:	d503201f 	nop
ffff000000082d5c:	d503201f 	nop
ffff000000082d60:	d503201f 	nop
ffff000000082d64:	d503201f 	nop
ffff000000082d68:	d503201f 	nop
ffff000000082d6c:	d503201f 	nop
ffff000000082d70:	d503201f 	nop
ffff000000082d74:	d503201f 	nop
ffff000000082d78:	d503201f 	nop
ffff000000082d7c:	d503201f 	nop
ffff000000082d80:	d503201f 	nop
ffff000000082d84:	d503201f 	nop
ffff000000082d88:	d503201f 	nop
ffff000000082d8c:	d503201f 	nop
ffff000000082d90:	d503201f 	nop
ffff000000082d94:	d503201f 	nop
ffff000000082d98:	d503201f 	nop
ffff000000082d9c:	d503201f 	nop
ffff000000082da0:	d503201f 	nop
ffff000000082da4:	d503201f 	nop
ffff000000082da8:	d503201f 	nop
ffff000000082dac:	d503201f 	nop
ffff000000082db0:	d503201f 	nop
ffff000000082db4:	d503201f 	nop
ffff000000082db8:	d503201f 	nop
ffff000000082dbc:	d503201f 	nop
ffff000000082dc0:	d503201f 	nop
ffff000000082dc4:	d503201f 	nop
ffff000000082dc8:	d503201f 	nop
ffff000000082dcc:	d503201f 	nop
ffff000000082dd0:	d503201f 	nop
ffff000000082dd4:	d503201f 	nop
ffff000000082dd8:	d503201f 	nop
ffff000000082ddc:	d503201f 	nop
ffff000000082de0:	d503201f 	nop
ffff000000082de4:	d503201f 	nop
ffff000000082de8:	d503201f 	nop
ffff000000082dec:	d503201f 	nop
ffff000000082df0:	d503201f 	nop
ffff000000082df4:	d503201f 	nop
ffff000000082df8:	d503201f 	nop
ffff000000082dfc:	d503201f 	nop
ffff000000082e00:	d503201f 	nop
ffff000000082e04:	d503201f 	nop
ffff000000082e08:	d503201f 	nop
ffff000000082e0c:	d503201f 	nop
ffff000000082e10:	d503201f 	nop
ffff000000082e14:	d503201f 	nop
ffff000000082e18:	d503201f 	nop
ffff000000082e1c:	d503201f 	nop
ffff000000082e20:	d503201f 	nop
ffff000000082e24:	d503201f 	nop
ffff000000082e28:	d503201f 	nop
ffff000000082e2c:	d503201f 	nop
ffff000000082e30:	d503201f 	nop
ffff000000082e34:	d503201f 	nop
ffff000000082e38:	d503201f 	nop
ffff000000082e3c:	d503201f 	nop
ffff000000082e40:	d503201f 	nop
ffff000000082e44:	d503201f 	nop
ffff000000082e48:	d503201f 	nop
ffff000000082e4c:	d503201f 	nop
ffff000000082e50:	d503201f 	nop
ffff000000082e54:	d503201f 	nop
ffff000000082e58:	d503201f 	nop
ffff000000082e5c:	d503201f 	nop
ffff000000082e60:	d503201f 	nop
ffff000000082e64:	d503201f 	nop
ffff000000082e68:	d503201f 	nop
ffff000000082e6c:	d503201f 	nop
ffff000000082e70:	d503201f 	nop
ffff000000082e74:	d503201f 	nop
ffff000000082e78:	d503201f 	nop
ffff000000082e7c:	d503201f 	nop
ffff000000082e80:	d503201f 	nop
ffff000000082e84:	d503201f 	nop
ffff000000082e88:	d503201f 	nop
ffff000000082e8c:	d503201f 	nop
ffff000000082e90:	d503201f 	nop
ffff000000082e94:	d503201f 	nop
ffff000000082e98:	d503201f 	nop
ffff000000082e9c:	d503201f 	nop
ffff000000082ea0:	d503201f 	nop
ffff000000082ea4:	d503201f 	nop
ffff000000082ea8:	d503201f 	nop
ffff000000082eac:	d503201f 	nop
ffff000000082eb0:	d503201f 	nop
ffff000000082eb4:	d503201f 	nop
ffff000000082eb8:	d503201f 	nop
ffff000000082ebc:	d503201f 	nop
ffff000000082ec0:	d503201f 	nop
ffff000000082ec4:	d503201f 	nop
ffff000000082ec8:	d503201f 	nop
ffff000000082ecc:	d503201f 	nop
ffff000000082ed0:	d503201f 	nop
ffff000000082ed4:	d503201f 	nop
ffff000000082ed8:	d503201f 	nop
ffff000000082edc:	d503201f 	nop
ffff000000082ee0:	d503201f 	nop
ffff000000082ee4:	d503201f 	nop
ffff000000082ee8:	d503201f 	nop
ffff000000082eec:	d503201f 	nop
ffff000000082ef0:	d503201f 	nop
ffff000000082ef4:	d503201f 	nop
ffff000000082ef8:	d503201f 	nop
ffff000000082efc:	d503201f 	nop
ffff000000082f00:	d503201f 	nop
ffff000000082f04:	d503201f 	nop
ffff000000082f08:	d503201f 	nop
ffff000000082f0c:	d503201f 	nop
ffff000000082f10:	d503201f 	nop
ffff000000082f14:	d503201f 	nop
ffff000000082f18:	d503201f 	nop
ffff000000082f1c:	d503201f 	nop
ffff000000082f20:	d503201f 	nop
ffff000000082f24:	d503201f 	nop
ffff000000082f28:	d503201f 	nop
ffff000000082f2c:	d503201f 	nop
ffff000000082f30:	d503201f 	nop
ffff000000082f34:	d503201f 	nop
ffff000000082f38:	d503201f 	nop
ffff000000082f3c:	d503201f 	nop
ffff000000082f40:	d503201f 	nop
ffff000000082f44:	d503201f 	nop
ffff000000082f48:	d503201f 	nop
ffff000000082f4c:	d503201f 	nop
ffff000000082f50:	d503201f 	nop
ffff000000082f54:	d503201f 	nop
ffff000000082f58:	d503201f 	nop
ffff000000082f5c:	d503201f 	nop
ffff000000082f60:	d503201f 	nop
ffff000000082f64:	d503201f 	nop
ffff000000082f68:	d503201f 	nop
ffff000000082f6c:	d503201f 	nop
ffff000000082f70:	d503201f 	nop
ffff000000082f74:	d503201f 	nop
ffff000000082f78:	d503201f 	nop
ffff000000082f7c:	d503201f 	nop
ffff000000082f80:	d503201f 	nop
ffff000000082f84:	d503201f 	nop
ffff000000082f88:	d503201f 	nop
ffff000000082f8c:	d503201f 	nop
ffff000000082f90:	d503201f 	nop
ffff000000082f94:	d503201f 	nop
ffff000000082f98:	d503201f 	nop
ffff000000082f9c:	d503201f 	nop
ffff000000082fa0:	d503201f 	nop
ffff000000082fa4:	d503201f 	nop
ffff000000082fa8:	d503201f 	nop
ffff000000082fac:	d503201f 	nop
ffff000000082fb0:	d503201f 	nop
ffff000000082fb4:	d503201f 	nop
ffff000000082fb8:	d503201f 	nop
ffff000000082fbc:	d503201f 	nop
ffff000000082fc0:	d503201f 	nop
ffff000000082fc4:	d503201f 	nop
ffff000000082fc8:	d503201f 	nop
ffff000000082fcc:	d503201f 	nop
ffff000000082fd0:	d503201f 	nop
ffff000000082fd4:	d503201f 	nop
ffff000000082fd8:	d503201f 	nop
ffff000000082fdc:	d503201f 	nop
ffff000000082fe0:	d503201f 	nop
ffff000000082fe4:	d503201f 	nop
ffff000000082fe8:	d503201f 	nop
ffff000000082fec:	d503201f 	nop
ffff000000082ff0:	d503201f 	nop
ffff000000082ff4:	d503201f 	nop
ffff000000082ff8:	d503201f 	nop
ffff000000082ffc:	d503201f 	nop

ffff000000083000 <pgd_ttbr1>:
	...

ffff000000084000 <pud_ttbr1>:
	...

ffff000000085000 <pmd_ttbr1>:
	...

ffff000000086000 <pmd2_ttbr1>:
	...

ffff000000087000 <pgd_ttbr0>:
	...

ffff000000088000 <pud_ttbr0>:
	...

ffff000000089000 <pmd_ttbr0>:
	...
ffff00000008a000:	00004400 	.word	0x00004400
ffff00000008a004:	00000000 	.word	0x00000000
ffff00000008a008:	80100010 	.word	0x80100010
ffff00000008a00c:	00000000 	.word	0x00000000

ffff00000008a010 <free_region>:
ffff00000008a010:	a9bd7bfd 	stp	x29, x30, [sp, #-48]!
ffff00000008a014:	910003fd 	mov	x29, sp
ffff00000008a018:	f9000fe0 	str	x0, [sp, #24]
ffff00000008a01c:	f9000be1 	str	x1, [sp, #16]
ffff00000008a020:	f9400fe1 	ldr	x1, [sp, #24]
ffff00000008a024:	b24053e0 	mov	x0, #0x1fffff              	// #2097151
ffff00000008a028:	8b000020 	add	x0, x1, x0
ffff00000008a02c:	926ba800 	and	x0, x0, #0xffffffffffe00000
ffff00000008a030:	f90017e0 	str	x0, [sp, #40]
ffff00000008a034:	1400000c 	b	ffff00000008a064 <free_region+0x54>
ffff00000008a038:	f94017e0 	ldr	x0, [sp, #40]
ffff00000008a03c:	91480001 	add	x1, x0, #0x200, lsl #12
ffff00000008a040:	d2a60000 	mov	x0, #0x30000000            	// #805306368
ffff00000008a044:	f2ffffe0 	movk	x0, #0xffff, lsl #48
ffff00000008a048:	eb00003f 	cmp	x1, x0
ffff00000008a04c:	54000068 	b.hi	ffff00000008a058 <free_region+0x48>  // b.pmore
ffff00000008a050:	f94017e0 	ldr	x0, [sp, #40]
ffff00000008a054:	9400000d 	bl	ffff00000008a088 <kfree>
ffff00000008a058:	f94017e0 	ldr	x0, [sp, #40]
ffff00000008a05c:	91480000 	add	x0, x0, #0x200, lsl #12
ffff00000008a060:	f90017e0 	str	x0, [sp, #40]
ffff00000008a064:	f94017e0 	ldr	x0, [sp, #40]
ffff00000008a068:	91480000 	add	x0, x0, #0x200, lsl #12
ffff00000008a06c:	f9400be1 	ldr	x1, [sp, #16]
ffff00000008a070:	eb00003f 	cmp	x1, x0
ffff00000008a074:	54fffe22 	b.cs	ffff00000008a038 <free_region+0x28>  // b.hs, b.nlast
ffff00000008a078:	d503201f 	nop
ffff00000008a07c:	d503201f 	nop
ffff00000008a080:	a8c37bfd 	ldp	x29, x30, [sp], #48
ffff00000008a084:	d65f03c0 	ret

ffff00000008a088 <kfree>:
ffff00000008a088:	a9bd7bfd 	stp	x29, x30, [sp, #-48]!
ffff00000008a08c:	910003fd 	mov	x29, sp
ffff00000008a090:	f9000fe0 	str	x0, [sp, #24]
ffff00000008a094:	f9400fe0 	ldr	x0, [sp, #24]
ffff00000008a098:	92405000 	and	x0, x0, #0x1fffff
ffff00000008a09c:	f100001f 	cmp	x0, #0x0
ffff00000008a0a0:	540000a0 	b.eq	ffff00000008a0b4 <kfree+0x2c>  // b.none
ffff00000008a0a4:	d2800381 	mov	x1, #0x1c                  	// #28
ffff00000008a0a8:	f0000000 	adrp	x0, ffff00000008d000 <video_set_resolution+0x1fc>
ffff00000008a0ac:	913f2000 	add	x0, x0, #0xfc8
ffff00000008a0b0:	97ffdb2b 	bl	ffff000000080d5c <error_check>
ffff00000008a0b4:	b0000020 	adrp	x0, ffff00000008f000 <font_data+0xf68>
ffff00000008a0b8:	f947bc00 	ldr	x0, [x0, #3960]
ffff00000008a0bc:	f9400fe1 	ldr	x1, [sp, #24]
ffff00000008a0c0:	eb00003f 	cmp	x1, x0
ffff00000008a0c4:	540000a2 	b.cs	ffff00000008a0d8 <kfree+0x50>  // b.hs, b.nlast
ffff00000008a0c8:	d28003a1 	mov	x1, #0x1d                  	// #29
ffff00000008a0cc:	f0000000 	adrp	x0, ffff00000008d000 <video_set_resolution+0x1fc>
ffff00000008a0d0:	913f2000 	add	x0, x0, #0xfc8
ffff00000008a0d4:	97ffdb22 	bl	ffff000000080d5c <error_check>
ffff00000008a0d8:	f9400fe0 	ldr	x0, [sp, #24]
ffff00000008a0dc:	91480001 	add	x1, x0, #0x200, lsl #12
ffff00000008a0e0:	d2a60000 	mov	x0, #0x30000000            	// #805306368
ffff00000008a0e4:	f2ffffe0 	movk	x0, #0xffff, lsl #48
ffff00000008a0e8:	eb00003f 	cmp	x1, x0
ffff00000008a0ec:	540000a9 	b.ls	ffff00000008a100 <kfree+0x78>  // b.plast
ffff00000008a0f0:	d28003c1 	mov	x1, #0x1e                  	// #30
ffff00000008a0f4:	f0000000 	adrp	x0, ffff00000008d000 <video_set_resolution+0x1fc>
ffff00000008a0f8:	913f2000 	add	x0, x0, #0xfc8
ffff00000008a0fc:	97ffdb18 	bl	ffff000000080d5c <error_check>
ffff00000008a100:	f9400fe0 	ldr	x0, [sp, #24]
ffff00000008a104:	f90017e0 	str	x0, [sp, #40]
ffff00000008a108:	b0000020 	adrp	x0, ffff00000008f000 <font_data+0xf68>
ffff00000008a10c:	913f0000 	add	x0, x0, #0xfc0
ffff00000008a110:	f9400001 	ldr	x1, [x0]
ffff00000008a114:	f94017e0 	ldr	x0, [sp, #40]
ffff00000008a118:	f9000001 	str	x1, [x0]
ffff00000008a11c:	b0000020 	adrp	x0, ffff00000008f000 <font_data+0xf68>
ffff00000008a120:	913f0000 	add	x0, x0, #0xfc0
ffff00000008a124:	f94017e1 	ldr	x1, [sp, #40]
ffff00000008a128:	f9000001 	str	x1, [x0]
ffff00000008a12c:	d503201f 	nop
ffff00000008a130:	a8c37bfd 	ldp	x29, x30, [sp], #48
ffff00000008a134:	d65f03c0 	ret

ffff00000008a138 <kalloc>:
ffff00000008a138:	a9be7bfd 	stp	x29, x30, [sp, #-32]!
ffff00000008a13c:	910003fd 	mov	x29, sp
ffff00000008a140:	b0000020 	adrp	x0, ffff00000008f000 <font_data+0xf68>
ffff00000008a144:	913f0000 	add	x0, x0, #0xfc0
ffff00000008a148:	f9400000 	ldr	x0, [x0]
ffff00000008a14c:	f9000fe0 	str	x0, [sp, #24]
ffff00000008a150:	f9400fe0 	ldr	x0, [sp, #24]
ffff00000008a154:	f100001f 	cmp	x0, #0x0
ffff00000008a158:	54000420 	b.eq	ffff00000008a1dc <kalloc+0xa4>  // b.none
ffff00000008a15c:	f9400fe0 	ldr	x0, [sp, #24]
ffff00000008a160:	92405000 	and	x0, x0, #0x1fffff
ffff00000008a164:	f100001f 	cmp	x0, #0x0
ffff00000008a168:	540000a0 	b.eq	ffff00000008a17c <kalloc+0x44>  // b.none
ffff00000008a16c:	d2800561 	mov	x1, #0x2b                  	// #43
ffff00000008a170:	f0000000 	adrp	x0, ffff00000008d000 <video_set_resolution+0x1fc>
ffff00000008a174:	913f2000 	add	x0, x0, #0xfc8
ffff00000008a178:	97ffdaf9 	bl	ffff000000080d5c <error_check>
ffff00000008a17c:	f9400fe1 	ldr	x1, [sp, #24]
ffff00000008a180:	b0000020 	adrp	x0, ffff00000008f000 <font_data+0xf68>
ffff00000008a184:	f947bc00 	ldr	x0, [x0, #3960]
ffff00000008a188:	eb00003f 	cmp	x1, x0
ffff00000008a18c:	540000a2 	b.cs	ffff00000008a1a0 <kalloc+0x68>  // b.hs, b.nlast
ffff00000008a190:	d2800581 	mov	x1, #0x2c                  	// #44
ffff00000008a194:	f0000000 	adrp	x0, ffff00000008d000 <video_set_resolution+0x1fc>
ffff00000008a198:	913f2000 	add	x0, x0, #0xfc8
ffff00000008a19c:	97ffdaf0 	bl	ffff000000080d5c <error_check>
ffff00000008a1a0:	f9400fe0 	ldr	x0, [sp, #24]
ffff00000008a1a4:	91480001 	add	x1, x0, #0x200, lsl #12
ffff00000008a1a8:	d2a60000 	mov	x0, #0x30000000            	// #805306368
ffff00000008a1ac:	f2ffffe0 	movk	x0, #0xffff, lsl #48
ffff00000008a1b0:	eb00003f 	cmp	x1, x0
ffff00000008a1b4:	540000a9 	b.ls	ffff00000008a1c8 <kalloc+0x90>  // b.plast
ffff00000008a1b8:	d28005a1 	mov	x1, #0x2d                  	// #45
ffff00000008a1bc:	f0000000 	adrp	x0, ffff00000008d000 <video_set_resolution+0x1fc>
ffff00000008a1c0:	913f2000 	add	x0, x0, #0xfc8
ffff00000008a1c4:	97ffdae6 	bl	ffff000000080d5c <error_check>
ffff00000008a1c8:	f9400fe0 	ldr	x0, [sp, #24]
ffff00000008a1cc:	f9400001 	ldr	x1, [x0]
ffff00000008a1d0:	b0000020 	adrp	x0, ffff00000008f000 <font_data+0xf68>
ffff00000008a1d4:	913f0000 	add	x0, x0, #0xfc0
ffff00000008a1d8:	f9000001 	str	x1, [x0]
ffff00000008a1dc:	f9400fe0 	ldr	x0, [sp, #24]
ffff00000008a1e0:	a8c27bfd 	ldp	x29, x30, [sp], #32
ffff00000008a1e4:	d65f03c0 	ret

ffff00000008a1e8 <checkmm>:
ffff00000008a1e8:	a9bd7bfd 	stp	x29, x30, [sp, #-48]!
ffff00000008a1ec:	910003fd 	mov	x29, sp
ffff00000008a1f0:	b0000020 	adrp	x0, ffff00000008f000 <font_data+0xf68>
ffff00000008a1f4:	913f0000 	add	x0, x0, #0xfc0
ffff00000008a1f8:	f9400000 	ldr	x0, [x0]
ffff00000008a1fc:	f90017e0 	str	x0, [sp, #40]
ffff00000008a200:	f90013ff 	str	xzr, [sp, #32]
ffff00000008a204:	f9000fff 	str	xzr, [sp, #24]
ffff00000008a208:	1400000f 	b	ffff00000008a244 <checkmm+0x5c>
ffff00000008a20c:	f94013e0 	ldr	x0, [sp, #32]
ffff00000008a210:	91480000 	add	x0, x0, #0x200, lsl #12
ffff00000008a214:	f90013e0 	str	x0, [sp, #32]
ffff00000008a218:	f9400fe0 	ldr	x0, [sp, #24]
ffff00000008a21c:	91000401 	add	x1, x0, #0x1
ffff00000008a220:	f9000fe1 	str	x1, [sp, #24]
ffff00000008a224:	f94017e2 	ldr	x2, [sp, #40]
ffff00000008a228:	aa0003e1 	mov	x1, x0
ffff00000008a22c:	f0000000 	adrp	x0, ffff00000008d000 <video_set_resolution+0x1fc>
ffff00000008a230:	913f8000 	add	x0, x0, #0xfe0
ffff00000008a234:	97ffd90d 	bl	ffff000000080668 <printk>
ffff00000008a238:	f94017e0 	ldr	x0, [sp, #40]
ffff00000008a23c:	f9400000 	ldr	x0, [x0]
ffff00000008a240:	f90017e0 	str	x0, [sp, #40]
ffff00000008a244:	f94017e0 	ldr	x0, [sp, #40]
ffff00000008a248:	f100001f 	cmp	x0, #0x0
ffff00000008a24c:	54fffe01 	b.ne	ffff00000008a20c <checkmm+0x24>  // b.any
ffff00000008a250:	f94013e0 	ldr	x0, [sp, #32]
ffff00000008a254:	d354fc00 	lsr	x0, x0, #20
ffff00000008a258:	aa0003e1 	mov	x1, x0
ffff00000008a25c:	f0000000 	adrp	x0, ffff00000008d000 <video_set_resolution+0x1fc>
ffff00000008a260:	913fe000 	add	x0, x0, #0xff8
ffff00000008a264:	97ffd901 	bl	ffff000000080668 <printk>
ffff00000008a268:	d503201f 	nop
ffff00000008a26c:	a8c37bfd 	ldp	x29, x30, [sp], #48
ffff00000008a270:	d65f03c0 	ret

ffff00000008a274 <find_pgd_entry>:
ffff00000008a274:	a9bb7bfd 	stp	x29, x30, [sp, #-80]!
ffff00000008a278:	910003fd 	mov	x29, sp
ffff00000008a27c:	f90017e0 	str	x0, [sp, #40]
ffff00000008a280:	f90013e1 	str	x1, [sp, #32]
ffff00000008a284:	b9001fe2 	str	w2, [sp, #28]
ffff00000008a288:	f9000be3 	str	x3, [sp, #16]
ffff00000008a28c:	f94017e0 	ldr	x0, [sp, #40]
ffff00000008a290:	f90023e0 	str	x0, [sp, #64]
ffff00000008a294:	f90027ff 	str	xzr, [sp, #72]
ffff00000008a298:	f94013e0 	ldr	x0, [sp, #32]
ffff00000008a29c:	d367fc00 	lsr	x0, x0, #39
ffff00000008a2a0:	12002000 	and	w0, w0, #0x1ff
ffff00000008a2a4:	b9003fe0 	str	w0, [sp, #60]
ffff00000008a2a8:	b9403fe0 	ldr	w0, [sp, #60]
ffff00000008a2ac:	d37df000 	lsl	x0, x0, #3
ffff00000008a2b0:	f94023e1 	ldr	x1, [sp, #64]
ffff00000008a2b4:	8b000020 	add	x0, x1, x0
ffff00000008a2b8:	f9400000 	ldr	x0, [x0]
ffff00000008a2bc:	92400000 	and	x0, x0, #0x1
ffff00000008a2c0:	f100001f 	cmp	x0, #0x0
ffff00000008a2c4:	54000160 	b.eq	ffff00000008a2f0 <find_pgd_entry+0x7c>  // b.none
ffff00000008a2c8:	b9403fe0 	ldr	w0, [sp, #60]
ffff00000008a2cc:	d37df000 	lsl	x0, x0, #3
ffff00000008a2d0:	f94023e1 	ldr	x1, [sp, #64]
ffff00000008a2d4:	8b000020 	add	x0, x1, x0
ffff00000008a2d8:	f9400000 	ldr	x0, [x0]
ffff00000008a2dc:	92748c01 	and	x1, x0, #0xfffffffff000
ffff00000008a2e0:	d2ffffe0 	mov	x0, #0xffff000000000000    	// #-281474976710656
ffff00000008a2e4:	8b000020 	add	x0, x1, x0
ffff00000008a2e8:	f90027e0 	str	x0, [sp, #72]
ffff00000008a2ec:	14000018 	b	ffff00000008a34c <find_pgd_entry+0xd8>
ffff00000008a2f0:	b9401fe0 	ldr	w0, [sp, #28]
ffff00000008a2f4:	7100041f 	cmp	w0, #0x1
ffff00000008a2f8:	540002a1 	b.ne	ffff00000008a34c <find_pgd_entry+0xd8>  // b.any
ffff00000008a2fc:	97ffff8f 	bl	ffff00000008a138 <kalloc>
ffff00000008a300:	f90027e0 	str	x0, [sp, #72]
ffff00000008a304:	f94027e0 	ldr	x0, [sp, #72]
ffff00000008a308:	f100001f 	cmp	x0, #0x0
ffff00000008a30c:	54000200 	b.eq	ffff00000008a34c <find_pgd_entry+0xd8>  // b.none
ffff00000008a310:	52a00402 	mov	w2, #0x200000              	// #2097152
ffff00000008a314:	52800001 	mov	w1, #0x0                   	// #0
ffff00000008a318:	f94027e0 	ldr	x0, [sp, #72]
ffff00000008a31c:	97ffd777 	bl	ffff0000000800f8 <memset>
ffff00000008a320:	f94027e1 	ldr	x1, [sp, #72]
ffff00000008a324:	d2e00020 	mov	x0, #0x1000000000000       	// #281474976710656
ffff00000008a328:	8b000021 	add	x1, x1, x0
ffff00000008a32c:	f9400be0 	ldr	x0, [sp, #16]
ffff00000008a330:	aa000021 	orr	x1, x1, x0
ffff00000008a334:	b9403fe0 	ldr	w0, [sp, #60]
ffff00000008a338:	d37df000 	lsl	x0, x0, #3
ffff00000008a33c:	f94023e2 	ldr	x2, [sp, #64]
ffff00000008a340:	8b000040 	add	x0, x2, x0
ffff00000008a344:	b27f0021 	orr	x1, x1, #0x2
ffff00000008a348:	f9000001 	str	x1, [x0]
ffff00000008a34c:	f94027e0 	ldr	x0, [sp, #72]
ffff00000008a350:	a8c57bfd 	ldp	x29, x30, [sp], #80
ffff00000008a354:	d65f03c0 	ret

ffff00000008a358 <find_pud_entry>:
ffff00000008a358:	a9bb7bfd 	stp	x29, x30, [sp, #-80]!
ffff00000008a35c:	910003fd 	mov	x29, sp
ffff00000008a360:	f90017e0 	str	x0, [sp, #40]
ffff00000008a364:	f90013e1 	str	x1, [sp, #32]
ffff00000008a368:	b9001fe2 	str	w2, [sp, #28]
ffff00000008a36c:	f9000be3 	str	x3, [sp, #16]
ffff00000008a370:	f90023ff 	str	xzr, [sp, #64]
ffff00000008a374:	f90027ff 	str	xzr, [sp, #72]
ffff00000008a378:	f94013e0 	ldr	x0, [sp, #32]
ffff00000008a37c:	d35efc00 	lsr	x0, x0, #30
ffff00000008a380:	12002000 	and	w0, w0, #0x1ff
ffff00000008a384:	b9003fe0 	str	w0, [sp, #60]
ffff00000008a388:	f9400be3 	ldr	x3, [sp, #16]
ffff00000008a38c:	b9401fe2 	ldr	w2, [sp, #28]
ffff00000008a390:	f94013e1 	ldr	x1, [sp, #32]
ffff00000008a394:	f94017e0 	ldr	x0, [sp, #40]
ffff00000008a398:	97ffffb7 	bl	ffff00000008a274 <find_pgd_entry>
ffff00000008a39c:	f90023e0 	str	x0, [sp, #64]
ffff00000008a3a0:	f94023e0 	ldr	x0, [sp, #64]
ffff00000008a3a4:	f100001f 	cmp	x0, #0x0
ffff00000008a3a8:	54000061 	b.ne	ffff00000008a3b4 <find_pud_entry+0x5c>  // b.any
ffff00000008a3ac:	d2800000 	mov	x0, #0x0                   	// #0
ffff00000008a3b0:	1400002b 	b	ffff00000008a45c <find_pud_entry+0x104>
ffff00000008a3b4:	b9403fe0 	ldr	w0, [sp, #60]
ffff00000008a3b8:	d37df000 	lsl	x0, x0, #3
ffff00000008a3bc:	f94023e1 	ldr	x1, [sp, #64]
ffff00000008a3c0:	8b000020 	add	x0, x1, x0
ffff00000008a3c4:	f9400000 	ldr	x0, [x0]
ffff00000008a3c8:	92400000 	and	x0, x0, #0x1
ffff00000008a3cc:	f100001f 	cmp	x0, #0x0
ffff00000008a3d0:	54000160 	b.eq	ffff00000008a3fc <find_pud_entry+0xa4>  // b.none
ffff00000008a3d4:	b9403fe0 	ldr	w0, [sp, #60]
ffff00000008a3d8:	d37df000 	lsl	x0, x0, #3
ffff00000008a3dc:	f94023e1 	ldr	x1, [sp, #64]
ffff00000008a3e0:	8b000020 	add	x0, x1, x0
ffff00000008a3e4:	f9400000 	ldr	x0, [x0]
ffff00000008a3e8:	92748c01 	and	x1, x0, #0xfffffffff000
ffff00000008a3ec:	d2ffffe0 	mov	x0, #0xffff000000000000    	// #-281474976710656
ffff00000008a3f0:	8b000020 	add	x0, x1, x0
ffff00000008a3f4:	f90027e0 	str	x0, [sp, #72]
ffff00000008a3f8:	14000018 	b	ffff00000008a458 <find_pud_entry+0x100>
ffff00000008a3fc:	b9401fe0 	ldr	w0, [sp, #28]
ffff00000008a400:	7100041f 	cmp	w0, #0x1
ffff00000008a404:	540002a1 	b.ne	ffff00000008a458 <find_pud_entry+0x100>  // b.any
ffff00000008a408:	97ffff4c 	bl	ffff00000008a138 <kalloc>
ffff00000008a40c:	f90027e0 	str	x0, [sp, #72]
ffff00000008a410:	f94027e0 	ldr	x0, [sp, #72]
ffff00000008a414:	f100001f 	cmp	x0, #0x0
ffff00000008a418:	54000200 	b.eq	ffff00000008a458 <find_pud_entry+0x100>  // b.none
ffff00000008a41c:	52a00402 	mov	w2, #0x200000              	// #2097152
ffff00000008a420:	52800001 	mov	w1, #0x0                   	// #0
ffff00000008a424:	f94027e0 	ldr	x0, [sp, #72]
ffff00000008a428:	97ffd734 	bl	ffff0000000800f8 <memset>
ffff00000008a42c:	f94027e1 	ldr	x1, [sp, #72]
ffff00000008a430:	d2e00020 	mov	x0, #0x1000000000000       	// #281474976710656
ffff00000008a434:	8b000021 	add	x1, x1, x0
ffff00000008a438:	f9400be0 	ldr	x0, [sp, #16]
ffff00000008a43c:	aa000021 	orr	x1, x1, x0
ffff00000008a440:	b9403fe0 	ldr	w0, [sp, #60]
ffff00000008a444:	d37df000 	lsl	x0, x0, #3
ffff00000008a448:	f94023e2 	ldr	x2, [sp, #64]
ffff00000008a44c:	8b000040 	add	x0, x2, x0
ffff00000008a450:	b27f0021 	orr	x1, x1, #0x2
ffff00000008a454:	f9000001 	str	x1, [x0]
ffff00000008a458:	f94027e0 	ldr	x0, [sp, #72]
ffff00000008a45c:	a8c57bfd 	ldp	x29, x30, [sp], #80
ffff00000008a460:	d65f03c0 	ret

ffff00000008a464 <map_page>:
ffff00000008a464:	a9bb7bfd 	stp	x29, x30, [sp, #-80]!
ffff00000008a468:	910003fd 	mov	x29, sp
ffff00000008a46c:	f90017e0 	str	x0, [sp, #40]
ffff00000008a470:	f90013e1 	str	x1, [sp, #32]
ffff00000008a474:	f9000fe2 	str	x2, [sp, #24]
ffff00000008a478:	f9000be3 	str	x3, [sp, #16]
ffff00000008a47c:	f94013e0 	ldr	x0, [sp, #32]
ffff00000008a480:	926ba800 	and	x0, x0, #0xffffffffffe00000
ffff00000008a484:	f90027e0 	str	x0, [sp, #72]
ffff00000008a488:	f90023ff 	str	xzr, [sp, #64]
ffff00000008a48c:	f94027e0 	ldr	x0, [sp, #72]
ffff00000008a490:	91480001 	add	x1, x0, #0x200, lsl #12
ffff00000008a494:	92ba0000 	mov	x0, #0xffffffff2fffffff    	// #-3489660929
ffff00000008a498:	f2c00000 	movk	x0, #0x0, lsl #32
ffff00000008a49c:	eb00003f 	cmp	x1, x0
ffff00000008a4a0:	540000a9 	b.ls	ffff00000008a4b4 <map_page+0x50>  // b.plast
ffff00000008a4a4:	d2800fc1 	mov	x1, #0x7e                  	// #126
ffff00000008a4a8:	f0000000 	adrp	x0, ffff00000008d000 <video_set_resolution+0x1fc>
ffff00000008a4ac:	913f2000 	add	x0, x0, #0xfc8
ffff00000008a4b0:	97ffda2b 	bl	ffff000000080d5c <error_check>
ffff00000008a4b4:	f9400fe0 	ldr	x0, [sp, #24]
ffff00000008a4b8:	92405000 	and	x0, x0, #0x1fffff
ffff00000008a4bc:	f100001f 	cmp	x0, #0x0
ffff00000008a4c0:	540000a0 	b.eq	ffff00000008a4d4 <map_page+0x70>  // b.none
ffff00000008a4c4:	d2800fe1 	mov	x1, #0x7f                  	// #127
ffff00000008a4c8:	f0000000 	adrp	x0, ffff00000008d000 <video_set_resolution+0x1fc>
ffff00000008a4cc:	913f2000 	add	x0, x0, #0xfc8
ffff00000008a4d0:	97ffda23 	bl	ffff000000080d5c <error_check>
ffff00000008a4d4:	f9400fe0 	ldr	x0, [sp, #24]
ffff00000008a4d8:	91480001 	add	x1, x0, #0x200, lsl #12
ffff00000008a4dc:	d2a60000 	mov	x0, #0x30000000            	// #805306368
ffff00000008a4e0:	eb00003f 	cmp	x1, x0
ffff00000008a4e4:	540000a9 	b.ls	ffff00000008a4f8 <map_page+0x94>  // b.plast
ffff00000008a4e8:	d2801001 	mov	x1, #0x80                  	// #128
ffff00000008a4ec:	f0000000 	adrp	x0, ffff00000008d000 <video_set_resolution+0x1fc>
ffff00000008a4f0:	913f2000 	add	x0, x0, #0xfc8
ffff00000008a4f4:	97ffda1a 	bl	ffff000000080d5c <error_check>
ffff00000008a4f8:	f9400be3 	ldr	x3, [sp, #16]
ffff00000008a4fc:	52800022 	mov	w2, #0x1                   	// #1
ffff00000008a500:	f94027e1 	ldr	x1, [sp, #72]
ffff00000008a504:	f94017e0 	ldr	x0, [sp, #40]
ffff00000008a508:	97ffff94 	bl	ffff00000008a358 <find_pud_entry>
ffff00000008a50c:	f90023e0 	str	x0, [sp, #64]
ffff00000008a510:	f94023e0 	ldr	x0, [sp, #64]
ffff00000008a514:	f100001f 	cmp	x0, #0x0
ffff00000008a518:	54000061 	b.ne	ffff00000008a524 <map_page+0xc0>  // b.any
ffff00000008a51c:	52800000 	mov	w0, #0x0                   	// #0
ffff00000008a520:	1400001a 	b	ffff00000008a588 <map_page+0x124>
ffff00000008a524:	f94027e0 	ldr	x0, [sp, #72]
ffff00000008a528:	d355fc00 	lsr	x0, x0, #21
ffff00000008a52c:	12002000 	and	w0, w0, #0x1ff
ffff00000008a530:	b9003fe0 	str	w0, [sp, #60]
ffff00000008a534:	b9403fe0 	ldr	w0, [sp, #60]
ffff00000008a538:	d37df000 	lsl	x0, x0, #3
ffff00000008a53c:	f94023e1 	ldr	x1, [sp, #64]
ffff00000008a540:	8b000020 	add	x0, x1, x0
ffff00000008a544:	f9400000 	ldr	x0, [x0]
ffff00000008a548:	92400000 	and	x0, x0, #0x1
ffff00000008a54c:	f100001f 	cmp	x0, #0x0
ffff00000008a550:	540000a0 	b.eq	ffff00000008a564 <map_page+0x100>  // b.none
ffff00000008a554:	d2801121 	mov	x1, #0x89                  	// #137
ffff00000008a558:	f0000000 	adrp	x0, ffff00000008d000 <video_set_resolution+0x1fc>
ffff00000008a55c:	913f2000 	add	x0, x0, #0xfc8
ffff00000008a560:	97ffd9ff 	bl	ffff000000080d5c <error_check>
ffff00000008a564:	b9403fe0 	ldr	w0, [sp, #60]
ffff00000008a568:	d37df000 	lsl	x0, x0, #3
ffff00000008a56c:	f94023e1 	ldr	x1, [sp, #64]
ffff00000008a570:	8b000020 	add	x0, x1, x0
ffff00000008a574:	f9400fe2 	ldr	x2, [sp, #24]
ffff00000008a578:	f9400be1 	ldr	x1, [sp, #16]
ffff00000008a57c:	aa010041 	orr	x1, x2, x1
ffff00000008a580:	f9000001 	str	x1, [x0]
ffff00000008a584:	52800020 	mov	w0, #0x1                   	// #1
ffff00000008a588:	a8c57bfd 	ldp	x29, x30, [sp], #80
ffff00000008a58c:	d65f03c0 	ret

ffff00000008a590 <free_page>:
ffff00000008a590:	a9bd7bfd 	stp	x29, x30, [sp, #-48]!
ffff00000008a594:	910003fd 	mov	x29, sp
ffff00000008a598:	f9000fe0 	str	x0, [sp, #24]
ffff00000008a59c:	f9000be1 	str	x1, [sp, #16]
ffff00000008a5a0:	f90017ff 	str	xzr, [sp, #40]
ffff00000008a5a4:	f9400be0 	ldr	x0, [sp, #16]
ffff00000008a5a8:	92405000 	and	x0, x0, #0x1fffff
ffff00000008a5ac:	f100001f 	cmp	x0, #0x0
ffff00000008a5b0:	540000a0 	b.eq	ffff00000008a5c4 <free_page+0x34>  // b.none
ffff00000008a5b4:	d28012a1 	mov	x1, #0x95                  	// #149
ffff00000008a5b8:	f0000000 	adrp	x0, ffff00000008d000 <video_set_resolution+0x1fc>
ffff00000008a5bc:	913f2000 	add	x0, x0, #0xfc8
ffff00000008a5c0:	97ffd9e7 	bl	ffff000000080d5c <error_check>
ffff00000008a5c4:	d2800003 	mov	x3, #0x0                   	// #0
ffff00000008a5c8:	52800002 	mov	w2, #0x0                   	// #0
ffff00000008a5cc:	f9400be1 	ldr	x1, [sp, #16]
ffff00000008a5d0:	f9400fe0 	ldr	x0, [sp, #24]
ffff00000008a5d4:	97ffff61 	bl	ffff00000008a358 <find_pud_entry>
ffff00000008a5d8:	f90017e0 	str	x0, [sp, #40]
ffff00000008a5dc:	f94017e0 	ldr	x0, [sp, #40]
ffff00000008a5e0:	f100001f 	cmp	x0, #0x0
ffff00000008a5e4:	54000360 	b.eq	ffff00000008a650 <free_page+0xc0>  // b.none
ffff00000008a5e8:	f9400be0 	ldr	x0, [sp, #16]
ffff00000008a5ec:	d355fc00 	lsr	x0, x0, #21
ffff00000008a5f0:	12002000 	and	w0, w0, #0x1ff
ffff00000008a5f4:	b90027e0 	str	w0, [sp, #36]
ffff00000008a5f8:	b94027e0 	ldr	w0, [sp, #36]
ffff00000008a5fc:	d37df000 	lsl	x0, x0, #3
ffff00000008a600:	f94017e1 	ldr	x1, [sp, #40]
ffff00000008a604:	8b000020 	add	x0, x1, x0
ffff00000008a608:	f9400000 	ldr	x0, [x0]
ffff00000008a60c:	92400000 	and	x0, x0, #0x1
ffff00000008a610:	f100001f 	cmp	x0, #0x0
ffff00000008a614:	540001e0 	b.eq	ffff00000008a650 <free_page+0xc0>  // b.none
ffff00000008a618:	b94027e0 	ldr	w0, [sp, #36]
ffff00000008a61c:	d37df000 	lsl	x0, x0, #3
ffff00000008a620:	f94017e1 	ldr	x1, [sp, #40]
ffff00000008a624:	8b000020 	add	x0, x1, x0
ffff00000008a628:	f9400000 	ldr	x0, [x0]
ffff00000008a62c:	926b6801 	and	x1, x0, #0xffffffe00000
ffff00000008a630:	d2ffffe0 	mov	x0, #0xffff000000000000    	// #-281474976710656
ffff00000008a634:	8b000020 	add	x0, x1, x0
ffff00000008a638:	97fffe94 	bl	ffff00000008a088 <kfree>
ffff00000008a63c:	b94027e0 	ldr	w0, [sp, #36]
ffff00000008a640:	d37df000 	lsl	x0, x0, #3
ffff00000008a644:	f94017e1 	ldr	x1, [sp, #40]
ffff00000008a648:	8b000020 	add	x0, x1, x0
ffff00000008a64c:	f900001f 	str	xzr, [x0]
ffff00000008a650:	d503201f 	nop
ffff00000008a654:	a8c37bfd 	ldp	x29, x30, [sp], #48
ffff00000008a658:	d65f03c0 	ret

ffff00000008a65c <free_pmd>:
ffff00000008a65c:	a9bc7bfd 	stp	x29, x30, [sp, #-64]!
ffff00000008a660:	910003fd 	mov	x29, sp
ffff00000008a664:	f9000fe0 	str	x0, [sp, #24]
ffff00000008a668:	f9400fe0 	ldr	x0, [sp, #24]
ffff00000008a66c:	f9001be0 	str	x0, [sp, #48]
ffff00000008a670:	f90017ff 	str	xzr, [sp, #40]
ffff00000008a674:	b9003fff 	str	wzr, [sp, #60]
ffff00000008a678:	14000033 	b	ffff00000008a744 <free_pmd+0xe8>
ffff00000008a67c:	b9803fe0 	ldrsw	x0, [sp, #60]
ffff00000008a680:	d37df000 	lsl	x0, x0, #3
ffff00000008a684:	f9401be1 	ldr	x1, [sp, #48]
ffff00000008a688:	8b000020 	add	x0, x1, x0
ffff00000008a68c:	f9400000 	ldr	x0, [x0]
ffff00000008a690:	92400000 	and	x0, x0, #0x1
ffff00000008a694:	f100001f 	cmp	x0, #0x0
ffff00000008a698:	54000500 	b.eq	ffff00000008a738 <free_pmd+0xdc>  // b.none
ffff00000008a69c:	b9803fe0 	ldrsw	x0, [sp, #60]
ffff00000008a6a0:	d37df000 	lsl	x0, x0, #3
ffff00000008a6a4:	f9401be1 	ldr	x1, [sp, #48]
ffff00000008a6a8:	8b000020 	add	x0, x1, x0
ffff00000008a6ac:	f9400000 	ldr	x0, [x0]
ffff00000008a6b0:	92748c01 	and	x1, x0, #0xfffffffff000
ffff00000008a6b4:	d2ffffe0 	mov	x0, #0xffff000000000000    	// #-281474976710656
ffff00000008a6b8:	8b000020 	add	x0, x1, x0
ffff00000008a6bc:	f90017e0 	str	x0, [sp, #40]
ffff00000008a6c0:	b9003bff 	str	wzr, [sp, #56]
ffff00000008a6c4:	1400001a 	b	ffff00000008a72c <free_pmd+0xd0>
ffff00000008a6c8:	b9803be0 	ldrsw	x0, [sp, #56]
ffff00000008a6cc:	d37df000 	lsl	x0, x0, #3
ffff00000008a6d0:	f94017e1 	ldr	x1, [sp, #40]
ffff00000008a6d4:	8b000020 	add	x0, x1, x0
ffff00000008a6d8:	f9400000 	ldr	x0, [x0]
ffff00000008a6dc:	92400000 	and	x0, x0, #0x1
ffff00000008a6e0:	f100001f 	cmp	x0, #0x0
ffff00000008a6e4:	540001e0 	b.eq	ffff00000008a720 <free_pmd+0xc4>  // b.none
ffff00000008a6e8:	b9803be0 	ldrsw	x0, [sp, #56]
ffff00000008a6ec:	d37df000 	lsl	x0, x0, #3
ffff00000008a6f0:	f94017e1 	ldr	x1, [sp, #40]
ffff00000008a6f4:	8b000020 	add	x0, x1, x0
ffff00000008a6f8:	f9400000 	ldr	x0, [x0]
ffff00000008a6fc:	92748c01 	and	x1, x0, #0xfffffffff000
ffff00000008a700:	d2ffffe0 	mov	x0, #0xffff000000000000    	// #-281474976710656
ffff00000008a704:	8b000020 	add	x0, x1, x0
ffff00000008a708:	97fffe60 	bl	ffff00000008a088 <kfree>
ffff00000008a70c:	b9803be0 	ldrsw	x0, [sp, #56]
ffff00000008a710:	d37df000 	lsl	x0, x0, #3
ffff00000008a714:	f94017e1 	ldr	x1, [sp, #40]
ffff00000008a718:	8b000020 	add	x0, x1, x0
ffff00000008a71c:	f900001f 	str	xzr, [x0]
ffff00000008a720:	b9403be0 	ldr	w0, [sp, #56]
ffff00000008a724:	11000400 	add	w0, w0, #0x1
ffff00000008a728:	b9003be0 	str	w0, [sp, #56]
ffff00000008a72c:	b9403be0 	ldr	w0, [sp, #56]
ffff00000008a730:	7107fc1f 	cmp	w0, #0x1ff
ffff00000008a734:	54fffcad 	b.le	ffff00000008a6c8 <free_pmd+0x6c>
ffff00000008a738:	b9403fe0 	ldr	w0, [sp, #60]
ffff00000008a73c:	11000400 	add	w0, w0, #0x1
ffff00000008a740:	b9003fe0 	str	w0, [sp, #60]
ffff00000008a744:	b9403fe0 	ldr	w0, [sp, #60]
ffff00000008a748:	7107fc1f 	cmp	w0, #0x1ff
ffff00000008a74c:	54fff98d 	b.le	ffff00000008a67c <free_pmd+0x20>
ffff00000008a750:	d503201f 	nop
ffff00000008a754:	d503201f 	nop
ffff00000008a758:	a8c47bfd 	ldp	x29, x30, [sp], #64
ffff00000008a75c:	d65f03c0 	ret

ffff00000008a760 <free_pud>:
ffff00000008a760:	a9bd7bfd 	stp	x29, x30, [sp, #-48]!
ffff00000008a764:	910003fd 	mov	x29, sp
ffff00000008a768:	f9000fe0 	str	x0, [sp, #24]
ffff00000008a76c:	f9400fe0 	ldr	x0, [sp, #24]
ffff00000008a770:	f90013e0 	str	x0, [sp, #32]
ffff00000008a774:	b9002fff 	str	wzr, [sp, #44]
ffff00000008a778:	1400001a 	b	ffff00000008a7e0 <free_pud+0x80>
ffff00000008a77c:	b9802fe0 	ldrsw	x0, [sp, #44]
ffff00000008a780:	d37df000 	lsl	x0, x0, #3
ffff00000008a784:	f94013e1 	ldr	x1, [sp, #32]
ffff00000008a788:	8b000020 	add	x0, x1, x0
ffff00000008a78c:	f9400000 	ldr	x0, [x0]
ffff00000008a790:	92400000 	and	x0, x0, #0x1
ffff00000008a794:	f100001f 	cmp	x0, #0x0
ffff00000008a798:	540001e0 	b.eq	ffff00000008a7d4 <free_pud+0x74>  // b.none
ffff00000008a79c:	b9802fe0 	ldrsw	x0, [sp, #44]
ffff00000008a7a0:	d37df000 	lsl	x0, x0, #3
ffff00000008a7a4:	f94013e1 	ldr	x1, [sp, #32]
ffff00000008a7a8:	8b000020 	add	x0, x1, x0
ffff00000008a7ac:	f9400000 	ldr	x0, [x0]
ffff00000008a7b0:	92748c01 	and	x1, x0, #0xfffffffff000
ffff00000008a7b4:	d2ffffe0 	mov	x0, #0xffff000000000000    	// #-281474976710656
ffff00000008a7b8:	8b000020 	add	x0, x1, x0
ffff00000008a7bc:	97fffe33 	bl	ffff00000008a088 <kfree>
ffff00000008a7c0:	b9802fe0 	ldrsw	x0, [sp, #44]
ffff00000008a7c4:	d37df000 	lsl	x0, x0, #3
ffff00000008a7c8:	f94013e1 	ldr	x1, [sp, #32]
ffff00000008a7cc:	8b000020 	add	x0, x1, x0
ffff00000008a7d0:	f900001f 	str	xzr, [x0]
ffff00000008a7d4:	b9402fe0 	ldr	w0, [sp, #44]
ffff00000008a7d8:	11000400 	add	w0, w0, #0x1
ffff00000008a7dc:	b9002fe0 	str	w0, [sp, #44]
ffff00000008a7e0:	b9402fe0 	ldr	w0, [sp, #44]
ffff00000008a7e4:	7107fc1f 	cmp	w0, #0x1ff
ffff00000008a7e8:	54fffcad 	b.le	ffff00000008a77c <free_pud+0x1c>
ffff00000008a7ec:	d503201f 	nop
ffff00000008a7f0:	d503201f 	nop
ffff00000008a7f4:	a8c37bfd 	ldp	x29, x30, [sp], #48
ffff00000008a7f8:	d65f03c0 	ret

ffff00000008a7fc <free_pgd>:
ffff00000008a7fc:	a9be7bfd 	stp	x29, x30, [sp, #-32]!
ffff00000008a800:	910003fd 	mov	x29, sp
ffff00000008a804:	f9000fe0 	str	x0, [sp, #24]
ffff00000008a808:	f9400fe0 	ldr	x0, [sp, #24]
ffff00000008a80c:	97fffe1f 	bl	ffff00000008a088 <kfree>
ffff00000008a810:	d503201f 	nop
ffff00000008a814:	a8c27bfd 	ldp	x29, x30, [sp], #32
ffff00000008a818:	d65f03c0 	ret

ffff00000008a81c <free_vm>:
ffff00000008a81c:	a9be7bfd 	stp	x29, x30, [sp, #-32]!
ffff00000008a820:	910003fd 	mov	x29, sp
ffff00000008a824:	f9000fe0 	str	x0, [sp, #24]
ffff00000008a828:	d2a00801 	mov	x1, #0x400000              	// #4194304
ffff00000008a82c:	f9400fe0 	ldr	x0, [sp, #24]
ffff00000008a830:	97ffff58 	bl	ffff00000008a590 <free_page>
ffff00000008a834:	f9400fe0 	ldr	x0, [sp, #24]
ffff00000008a838:	97ffff89 	bl	ffff00000008a65c <free_pmd>
ffff00000008a83c:	f9400fe0 	ldr	x0, [sp, #24]
ffff00000008a840:	97ffffc8 	bl	ffff00000008a760 <free_pud>
ffff00000008a844:	f9400fe0 	ldr	x0, [sp, #24]
ffff00000008a848:	97ffffed 	bl	ffff00000008a7fc <free_pgd>
ffff00000008a84c:	d503201f 	nop
ffff00000008a850:	a8c27bfd 	ldp	x29, x30, [sp], #32
ffff00000008a854:	d65f03c0 	ret

ffff00000008a858 <setup_uvm>:
ffff00000008a858:	a9bc7bfd 	stp	x29, x30, [sp, #-64]!
ffff00000008a85c:	910003fd 	mov	x29, sp
ffff00000008a860:	f9000fe0 	str	x0, [sp, #24]
ffff00000008a864:	f9000be1 	str	x1, [sp, #16]
ffff00000008a868:	3900ffff 	strb	wzr, [sp, #63]
ffff00000008a86c:	f9400fe0 	ldr	x0, [sp, #24]
ffff00000008a870:	f9401000 	ldr	x0, [x0, #32]
ffff00000008a874:	f9001be0 	str	x0, [sp, #48]
ffff00000008a878:	97fffe30 	bl	ffff00000008a138 <kalloc>
ffff00000008a87c:	f90017e0 	str	x0, [sp, #40]
ffff00000008a880:	f94017e0 	ldr	x0, [sp, #40]
ffff00000008a884:	f100001f 	cmp	x0, #0x0
ffff00000008a888:	540006c0 	b.eq	ffff00000008a960 <setup_uvm+0x108>  // b.none
ffff00000008a88c:	52a00402 	mov	w2, #0x200000              	// #2097152
ffff00000008a890:	52800001 	mov	w1, #0x0                   	// #0
ffff00000008a894:	f94017e0 	ldr	x0, [sp, #40]
ffff00000008a898:	97ffd618 	bl	ffff0000000800f8 <memset>
ffff00000008a89c:	f94017e1 	ldr	x1, [sp, #40]
ffff00000008a8a0:	d2e00020 	mov	x0, #0x1000000000000       	// #281474976710656
ffff00000008a8a4:	8b000020 	add	x0, x1, x0
ffff00000008a8a8:	d28088a3 	mov	x3, #0x445                 	// #1093
ffff00000008a8ac:	aa0003e2 	mov	x2, x0
ffff00000008a8b0:	d2a00801 	mov	x1, #0x400000              	// #4194304
ffff00000008a8b4:	f9401be0 	ldr	x0, [sp, #48]
ffff00000008a8b8:	97fffeeb 	bl	ffff00000008a464 <map_page>
ffff00000008a8bc:	3900ffe0 	strb	w0, [sp, #63]
ffff00000008a8c0:	3940ffe0 	ldrb	w0, [sp, #63]
ffff00000008a8c4:	12000000 	and	w0, w0, #0x1
ffff00000008a8c8:	7100001f 	cmp	w0, #0x0
ffff00000008a8cc:	54000420 	b.eq	ffff00000008a950 <setup_uvm+0xf8>  // b.none
ffff00000008a8d0:	f9400be1 	ldr	x1, [sp, #16]
ffff00000008a8d4:	f9400fe0 	ldr	x0, [sp, #24]
ffff00000008a8d8:	94000302 	bl	ffff00000008b4e0 <open_file>
ffff00000008a8dc:	b90027e0 	str	w0, [sp, #36]
ffff00000008a8e0:	b94027e0 	ldr	w0, [sp, #36]
ffff00000008a8e4:	3100041f 	cmn	w0, #0x1
ffff00000008a8e8:	540000a1 	b.ne	ffff00000008a8fc <setup_uvm+0xa4>  // b.any
ffff00000008a8ec:	f9401be0 	ldr	x0, [sp, #48]
ffff00000008a8f0:	97ffffcb 	bl	ffff00000008a81c <free_vm>
ffff00000008a8f4:	52800000 	mov	w0, #0x0                   	// #0
ffff00000008a8f8:	1400001b 	b	ffff00000008a964 <setup_uvm+0x10c>
ffff00000008a8fc:	b94027e1 	ldr	w1, [sp, #36]
ffff00000008a900:	f9400fe0 	ldr	x0, [sp, #24]
ffff00000008a904:	940002ec 	bl	ffff00000008b4b4 <get_file_size>
ffff00000008a908:	b90023e0 	str	w0, [sp, #32]
ffff00000008a90c:	b94023e3 	ldr	w3, [sp, #32]
ffff00000008a910:	f94017e2 	ldr	x2, [sp, #40]
ffff00000008a914:	b94027e1 	ldr	w1, [sp, #36]
ffff00000008a918:	f9400fe0 	ldr	x0, [sp, #24]
ffff00000008a91c:	94000242 	bl	ffff00000008b224 <read_file>
ffff00000008a920:	2a0003e1 	mov	w1, w0
ffff00000008a924:	b94023e0 	ldr	w0, [sp, #32]
ffff00000008a928:	6b01001f 	cmp	w0, w1
ffff00000008a92c:	540000a0 	b.eq	ffff00000008a940 <setup_uvm+0xe8>  // b.none
ffff00000008a930:	f9401be0 	ldr	x0, [sp, #48]
ffff00000008a934:	97ffffba 	bl	ffff00000008a81c <free_vm>
ffff00000008a938:	52800000 	mov	w0, #0x0                   	// #0
ffff00000008a93c:	1400000a 	b	ffff00000008a964 <setup_uvm+0x10c>
ffff00000008a940:	b94027e1 	ldr	w1, [sp, #36]
ffff00000008a944:	f9400fe0 	ldr	x0, [sp, #24]
ffff00000008a948:	9400036b 	bl	ffff00000008b6f4 <close_file>
ffff00000008a94c:	14000005 	b	ffff00000008a960 <setup_uvm+0x108>
ffff00000008a950:	f94017e0 	ldr	x0, [sp, #40]
ffff00000008a954:	97fffdcd 	bl	ffff00000008a088 <kfree>
ffff00000008a958:	f9401be0 	ldr	x0, [sp, #48]
ffff00000008a95c:	97ffffb0 	bl	ffff00000008a81c <free_vm>
ffff00000008a960:	3940ffe0 	ldrb	w0, [sp, #63]
ffff00000008a964:	a8c47bfd 	ldp	x29, x30, [sp], #64
ffff00000008a968:	d65f03c0 	ret

ffff00000008a96c <copy_uvm>:
ffff00000008a96c:	a9ba7bfd 	stp	x29, x30, [sp, #-96]!
ffff00000008a970:	910003fd 	mov	x29, sp
ffff00000008a974:	f90017e0 	str	x0, [sp, #40]
ffff00000008a978:	f90013e1 	str	x1, [sp, #32]
ffff00000008a97c:	b9001fe2 	str	w2, [sp, #28]
ffff00000008a980:	39017fff 	strb	wzr, [sp, #95]
ffff00000008a984:	f9002bff 	str	xzr, [sp, #80]
ffff00000008a988:	97fffdec 	bl	ffff00000008a138 <kalloc>
ffff00000008a98c:	f90027e0 	str	x0, [sp, #72]
ffff00000008a990:	f94027e0 	ldr	x0, [sp, #72]
ffff00000008a994:	f100001f 	cmp	x0, #0x0
ffff00000008a998:	54000820 	b.eq	ffff00000008aa9c <copy_uvm+0x130>  // b.none
ffff00000008a99c:	52a00402 	mov	w2, #0x200000              	// #2097152
ffff00000008a9a0:	52800001 	mov	w1, #0x0                   	// #0
ffff00000008a9a4:	f94027e0 	ldr	x0, [sp, #72]
ffff00000008a9a8:	97ffd5d4 	bl	ffff0000000800f8 <memset>
ffff00000008a9ac:	f94027e1 	ldr	x1, [sp, #72]
ffff00000008a9b0:	d2e00020 	mov	x0, #0x1000000000000       	// #281474976710656
ffff00000008a9b4:	8b000020 	add	x0, x1, x0
ffff00000008a9b8:	d28088a3 	mov	x3, #0x445                 	// #1093
ffff00000008a9bc:	aa0003e2 	mov	x2, x0
ffff00000008a9c0:	d2a00801 	mov	x1, #0x400000              	// #4194304
ffff00000008a9c4:	f94017e0 	ldr	x0, [sp, #40]
ffff00000008a9c8:	97fffea7 	bl	ffff00000008a464 <map_page>
ffff00000008a9cc:	39017fe0 	strb	w0, [sp, #95]
ffff00000008a9d0:	39417fe0 	ldrb	w0, [sp, #95]
ffff00000008a9d4:	12000000 	and	w0, w0, #0x1
ffff00000008a9d8:	7100001f 	cmp	w0, #0x0
ffff00000008a9dc:	54000580 	b.eq	ffff00000008aa8c <copy_uvm+0x120>  // b.none
ffff00000008a9e0:	d2800003 	mov	x3, #0x0                   	// #0
ffff00000008a9e4:	52800002 	mov	w2, #0x0                   	// #0
ffff00000008a9e8:	d2a00801 	mov	x1, #0x400000              	// #4194304
ffff00000008a9ec:	f94013e0 	ldr	x0, [sp, #32]
ffff00000008a9f0:	97fffe5a 	bl	ffff00000008a358 <find_pud_entry>
ffff00000008a9f4:	f9002be0 	str	x0, [sp, #80]
ffff00000008a9f8:	f9402be0 	ldr	x0, [sp, #80]
ffff00000008a9fc:	f100001f 	cmp	x0, #0x0
ffff00000008aa00:	540000a1 	b.ne	ffff00000008aa14 <copy_uvm+0xa8>  // b.any
ffff00000008aa04:	f94017e0 	ldr	x0, [sp, #40]
ffff00000008aa08:	97ffff85 	bl	ffff00000008a81c <free_vm>
ffff00000008aa0c:	52800000 	mov	w0, #0x0                   	// #0
ffff00000008aa10:	14000024 	b	ffff00000008aaa0 <copy_uvm+0x134>
ffff00000008aa14:	52800040 	mov	w0, #0x2                   	// #2
ffff00000008aa18:	b90047e0 	str	w0, [sp, #68]
ffff00000008aa1c:	b94047e0 	ldr	w0, [sp, #68]
ffff00000008aa20:	d37df000 	lsl	x0, x0, #3
ffff00000008aa24:	f9402be1 	ldr	x1, [sp, #80]
ffff00000008aa28:	8b000020 	add	x0, x1, x0
ffff00000008aa2c:	f9400000 	ldr	x0, [x0]
ffff00000008aa30:	92400000 	and	x0, x0, #0x1
ffff00000008aa34:	f100001f 	cmp	x0, #0x0
ffff00000008aa38:	540000a1 	b.ne	ffff00000008aa4c <copy_uvm+0xe0>  // b.any
ffff00000008aa3c:	d28022e1 	mov	x1, #0x117                 	// #279
ffff00000008aa40:	f0000000 	adrp	x0, ffff00000008d000 <video_set_resolution+0x1fc>
ffff00000008aa44:	913f2000 	add	x0, x0, #0xfc8
ffff00000008aa48:	97ffd8c5 	bl	ffff000000080d5c <error_check>
ffff00000008aa4c:	b94047e0 	ldr	w0, [sp, #68]
ffff00000008aa50:	d37df000 	lsl	x0, x0, #3
ffff00000008aa54:	f9402be1 	ldr	x1, [sp, #80]
ffff00000008aa58:	8b000020 	add	x0, x1, x0
ffff00000008aa5c:	f9400000 	ldr	x0, [x0]
ffff00000008aa60:	926b6801 	and	x1, x0, #0xffffffe00000
ffff00000008aa64:	d2ffffe0 	mov	x0, #0xffff000000000000    	// #-281474976710656
ffff00000008aa68:	8b000020 	add	x0, x1, x0
ffff00000008aa6c:	f9001fe0 	str	x0, [sp, #56]
ffff00000008aa70:	f9401fe0 	ldr	x0, [sp, #56]
ffff00000008aa74:	b9401fe1 	ldr	w1, [sp, #28]
ffff00000008aa78:	2a0103e2 	mov	w2, w1
ffff00000008aa7c:	aa0003e1 	mov	x1, x0
ffff00000008aa80:	f94027e0 	ldr	x0, [sp, #72]
ffff00000008aa84:	97ffd5ae 	bl	ffff00000008013c <memcpy>
ffff00000008aa88:	14000005 	b	ffff00000008aa9c <copy_uvm+0x130>
ffff00000008aa8c:	f94027e0 	ldr	x0, [sp, #72]
ffff00000008aa90:	97fffd7e 	bl	ffff00000008a088 <kfree>
ffff00000008aa94:	f94017e0 	ldr	x0, [sp, #40]
ffff00000008aa98:	97ffff61 	bl	ffff00000008a81c <free_vm>
ffff00000008aa9c:	39417fe0 	ldrb	w0, [sp, #95]
ffff00000008aaa0:	a8c67bfd 	ldp	x29, x30, [sp], #96
ffff00000008aaa4:	d65f03c0 	ret

ffff00000008aaa8 <switch_vm>:
ffff00000008aaa8:	a9be7bfd 	stp	x29, x30, [sp, #-32]!
ffff00000008aaac:	910003fd 	mov	x29, sp
ffff00000008aab0:	f9000fe0 	str	x0, [sp, #24]
ffff00000008aab4:	f9400fe1 	ldr	x1, [sp, #24]
ffff00000008aab8:	d2e00020 	mov	x0, #0x1000000000000       	// #281474976710656
ffff00000008aabc:	8b000020 	add	x0, x1, x0
ffff00000008aac0:	97ffdd52 	bl	ffff000000082008 <load_pgd>
ffff00000008aac4:	d503201f 	nop
ffff00000008aac8:	a8c27bfd 	ldp	x29, x30, [sp], #32
ffff00000008aacc:	d65f03c0 	ret

ffff00000008aad0 <init_memory>:
ffff00000008aad0:	a9bf7bfd 	stp	x29, x30, [sp, #-16]!
ffff00000008aad4:	910003fd 	mov	x29, sp
ffff00000008aad8:	b0000020 	adrp	x0, ffff00000008f000 <font_data+0xf68>
ffff00000008aadc:	f947bc00 	ldr	x0, [x0, #3960]
ffff00000008aae0:	d2a60001 	mov	x1, #0x30000000            	// #805306368
ffff00000008aae4:	f2ffffe1 	movk	x1, #0xffff, lsl #48
ffff00000008aae8:	97fffd4a 	bl	ffff00000008a010 <free_region>
ffff00000008aaec:	d503201f 	nop
ffff00000008aaf0:	a8c17bfd 	ldp	x29, x30, [sp], #16
ffff00000008aaf4:	d65f03c0 	ret

ffff00000008aaf8 <get_fs_bpb>:
ffff00000008aaf8:	d10043ff 	sub	sp, sp, #0x10
ffff00000008aafc:	d28038c0 	mov	x0, #0x1c6                 	// #454
ffff00000008ab00:	f2a60000 	movk	x0, #0x3000, lsl #16
ffff00000008ab04:	f2ffffe0 	movk	x0, #0xffff, lsl #48
ffff00000008ab08:	b9400000 	ldr	w0, [x0]
ffff00000008ab0c:	b9000fe0 	str	w0, [sp, #12]
ffff00000008ab10:	b9400fe0 	ldr	w0, [sp, #12]
ffff00000008ab14:	53175800 	lsl	w0, w0, #9
ffff00000008ab18:	2a0003e1 	mov	w1, w0
ffff00000008ab1c:	d2a60000 	mov	x0, #0x30000000            	// #805306368
ffff00000008ab20:	f2ffffe0 	movk	x0, #0xffff, lsl #48
ffff00000008ab24:	8b000020 	add	x0, x1, x0
ffff00000008ab28:	910043ff 	add	sp, sp, #0x10
ffff00000008ab2c:	d65f03c0 	ret

ffff00000008ab30 <get_fat_table>:
ffff00000008ab30:	a9be7bfd 	stp	x29, x30, [sp, #-32]!
ffff00000008ab34:	910003fd 	mov	x29, sp
ffff00000008ab38:	97fffff0 	bl	ffff00000008aaf8 <get_fs_bpb>
ffff00000008ab3c:	f9000fe0 	str	x0, [sp, #24]
ffff00000008ab40:	f9400fe0 	ldr	x0, [sp, #24]
ffff00000008ab44:	79401c00 	ldrh	w0, [x0, #14]
ffff00000008ab48:	2a0003e1 	mov	w1, w0
ffff00000008ab4c:	f9400fe0 	ldr	x0, [sp, #24]
ffff00000008ab50:	7840b000 	ldurh	w0, [x0, #11]
ffff00000008ab54:	1b007c20 	mul	w0, w1, w0
ffff00000008ab58:	b90017e0 	str	w0, [sp, #20]
ffff00000008ab5c:	b94017e0 	ldr	w0, [sp, #20]
ffff00000008ab60:	f9400fe1 	ldr	x1, [sp, #24]
ffff00000008ab64:	8b000020 	add	x0, x1, x0
ffff00000008ab68:	a8c27bfd 	ldp	x29, x30, [sp], #32
ffff00000008ab6c:	d65f03c0 	ret

ffff00000008ab70 <get_cluster_value>:
ffff00000008ab70:	a9bd7bfd 	stp	x29, x30, [sp, #-48]!
ffff00000008ab74:	910003fd 	mov	x29, sp
ffff00000008ab78:	b9001fe0 	str	w0, [sp, #28]
ffff00000008ab7c:	97ffffed 	bl	ffff00000008ab30 <get_fat_table>
ffff00000008ab80:	f90017e0 	str	x0, [sp, #40]
ffff00000008ab84:	b9401fe0 	ldr	w0, [sp, #28]
ffff00000008ab88:	d37ff800 	lsl	x0, x0, #1
ffff00000008ab8c:	f94017e1 	ldr	x1, [sp, #40]
ffff00000008ab90:	8b000020 	add	x0, x1, x0
ffff00000008ab94:	79400000 	ldrh	w0, [x0]
ffff00000008ab98:	a8c37bfd 	ldp	x29, x30, [sp], #48
ffff00000008ab9c:	d65f03c0 	ret

ffff00000008aba0 <get_cluster_offset>:
ffff00000008aba0:	a9bc7bfd 	stp	x29, x30, [sp, #-64]!
ffff00000008aba4:	910003fd 	mov	x29, sp
ffff00000008aba8:	b9001fe0 	str	w0, [sp, #28]
ffff00000008abac:	b9401fe0 	ldr	w0, [sp, #28]
ffff00000008abb0:	7100041f 	cmp	w0, #0x1
ffff00000008abb4:	540000a8 	b.hi	ffff00000008abc8 <get_cluster_offset+0x28>  // b.pmore
ffff00000008abb8:	d28004e1 	mov	x1, #0x27                  	// #39
ffff00000008abbc:	90000020 	adrp	x0, ffff00000008e000 <_fs_start+0x294>
ffff00000008abc0:	91004000 	add	x0, x0, #0x10
ffff00000008abc4:	97ffd866 	bl	ffff000000080d5c <error_check>
ffff00000008abc8:	97ffffcc 	bl	ffff00000008aaf8 <get_fs_bpb>
ffff00000008abcc:	f9001fe0 	str	x0, [sp, #56]
ffff00000008abd0:	f9401fe0 	ldr	x0, [sp, #56]
ffff00000008abd4:	79401c00 	ldrh	w0, [x0, #14]
ffff00000008abd8:	2a0003e1 	mov	w1, w0
ffff00000008abdc:	f9401fe0 	ldr	x0, [sp, #56]
ffff00000008abe0:	7840b000 	ldurh	w0, [x0, #11]
ffff00000008abe4:	1b007c20 	mul	w0, w1, w0
ffff00000008abe8:	b90037e0 	str	w0, [sp, #52]
ffff00000008abec:	f9401fe0 	ldr	x0, [sp, #56]
ffff00000008abf0:	39404000 	ldrb	w0, [x0, #16]
ffff00000008abf4:	2a0003e1 	mov	w1, w0
ffff00000008abf8:	f9401fe0 	ldr	x0, [sp, #56]
ffff00000008abfc:	79402c00 	ldrh	w0, [x0, #22]
ffff00000008ac00:	1b007c20 	mul	w0, w1, w0
ffff00000008ac04:	f9401fe1 	ldr	x1, [sp, #56]
ffff00000008ac08:	7840b021 	ldurh	w1, [x1, #11]
ffff00000008ac0c:	1b017c00 	mul	w0, w0, w1
ffff00000008ac10:	b90033e0 	str	w0, [sp, #48]
ffff00000008ac14:	f9401fe0 	ldr	x0, [sp, #56]
ffff00000008ac18:	78411000 	ldurh	w0, [x0, #17]
ffff00000008ac1c:	531b6800 	lsl	w0, w0, #5
ffff00000008ac20:	b9002fe0 	str	w0, [sp, #44]
ffff00000008ac24:	b94037e1 	ldr	w1, [sp, #52]
ffff00000008ac28:	b94033e0 	ldr	w0, [sp, #48]
ffff00000008ac2c:	0b000021 	add	w1, w1, w0
ffff00000008ac30:	b9402fe0 	ldr	w0, [sp, #44]
ffff00000008ac34:	0b000021 	add	w1, w1, w0
ffff00000008ac38:	b9401fe0 	ldr	w0, [sp, #28]
ffff00000008ac3c:	51000802 	sub	w2, w0, #0x2
ffff00000008ac40:	f9401fe0 	ldr	x0, [sp, #56]
ffff00000008ac44:	39403400 	ldrb	w0, [x0, #13]
ffff00000008ac48:	2a0003e3 	mov	w3, w0
ffff00000008ac4c:	f9401fe0 	ldr	x0, [sp, #56]
ffff00000008ac50:	7840b000 	ldurh	w0, [x0, #11]
ffff00000008ac54:	1b007c60 	mul	w0, w3, w0
ffff00000008ac58:	1b007c40 	mul	w0, w2, w0
ffff00000008ac5c:	0b000020 	add	w0, w1, w0
ffff00000008ac60:	a8c47bfd 	ldp	x29, x30, [sp], #64
ffff00000008ac64:	d65f03c0 	ret

ffff00000008ac68 <get_cluster_size>:
ffff00000008ac68:	a9be7bfd 	stp	x29, x30, [sp, #-32]!
ffff00000008ac6c:	910003fd 	mov	x29, sp
ffff00000008ac70:	97ffffa2 	bl	ffff00000008aaf8 <get_fs_bpb>
ffff00000008ac74:	f9000fe0 	str	x0, [sp, #24]
ffff00000008ac78:	f9400fe0 	ldr	x0, [sp, #24]
ffff00000008ac7c:	7840b000 	ldurh	w0, [x0, #11]
ffff00000008ac80:	2a0003e1 	mov	w1, w0
ffff00000008ac84:	f9400fe0 	ldr	x0, [sp, #24]
ffff00000008ac88:	39403400 	ldrb	w0, [x0, #13]
ffff00000008ac8c:	1b007c20 	mul	w0, w1, w0
ffff00000008ac90:	a8c27bfd 	ldp	x29, x30, [sp], #32
ffff00000008ac94:	d65f03c0 	ret

ffff00000008ac98 <get_root_directory_count>:
ffff00000008ac98:	a9be7bfd 	stp	x29, x30, [sp, #-32]!
ffff00000008ac9c:	910003fd 	mov	x29, sp
ffff00000008aca0:	97ffff96 	bl	ffff00000008aaf8 <get_fs_bpb>
ffff00000008aca4:	f9000fe0 	str	x0, [sp, #24]
ffff00000008aca8:	f9400fe0 	ldr	x0, [sp, #24]
ffff00000008acac:	78411000 	ldurh	w0, [x0, #17]
ffff00000008acb0:	a8c27bfd 	ldp	x29, x30, [sp], #32
ffff00000008acb4:	d65f03c0 	ret

ffff00000008acb8 <get_root_directory>:
ffff00000008acb8:	a9be7bfd 	stp	x29, x30, [sp, #-32]!
ffff00000008acbc:	910003fd 	mov	x29, sp
ffff00000008acc0:	97ffff8e 	bl	ffff00000008aaf8 <get_fs_bpb>
ffff00000008acc4:	f9000fe0 	str	x0, [sp, #24]
ffff00000008acc8:	f9400fe0 	ldr	x0, [sp, #24]
ffff00000008accc:	79401c00 	ldrh	w0, [x0, #14]
ffff00000008acd0:	2a0003e1 	mov	w1, w0
ffff00000008acd4:	f9400fe0 	ldr	x0, [sp, #24]
ffff00000008acd8:	39404000 	ldrb	w0, [x0, #16]
ffff00000008acdc:	2a0003e2 	mov	w2, w0
ffff00000008ace0:	f9400fe0 	ldr	x0, [sp, #24]
ffff00000008ace4:	79402c00 	ldrh	w0, [x0, #22]
ffff00000008ace8:	1b007c40 	mul	w0, w2, w0
ffff00000008acec:	0b000020 	add	w0, w1, w0
ffff00000008acf0:	f9400fe1 	ldr	x1, [sp, #24]
ffff00000008acf4:	7840b021 	ldurh	w1, [x1, #11]
ffff00000008acf8:	1b017c00 	mul	w0, w0, w1
ffff00000008acfc:	b90017e0 	str	w0, [sp, #20]
ffff00000008ad00:	b94017e0 	ldr	w0, [sp, #20]
ffff00000008ad04:	f9400fe1 	ldr	x1, [sp, #24]
ffff00000008ad08:	8b000020 	add	x0, x1, x0
ffff00000008ad0c:	a8c27bfd 	ldp	x29, x30, [sp], #32
ffff00000008ad10:	d65f03c0 	ret

ffff00000008ad14 <is_file_name_equal>:
ffff00000008ad14:	a9bc7bfd 	stp	x29, x30, [sp, #-64]!
ffff00000008ad18:	910003fd 	mov	x29, sp
ffff00000008ad1c:	f90017e0 	str	x0, [sp, #40]
ffff00000008ad20:	f90013e1 	str	x1, [sp, #32]
ffff00000008ad24:	f9000fe2 	str	x2, [sp, #24]
ffff00000008ad28:	3900ffff 	strb	wzr, [sp, #63]
ffff00000008ad2c:	f94017e0 	ldr	x0, [sp, #40]
ffff00000008ad30:	52800102 	mov	w2, #0x8                   	// #8
ffff00000008ad34:	f94013e1 	ldr	x1, [sp, #32]
ffff00000008ad38:	97ffd4f6 	bl	ffff000000080110 <memcmp>
ffff00000008ad3c:	7100001f 	cmp	w0, #0x0
ffff00000008ad40:	54000141 	b.ne	ffff00000008ad68 <is_file_name_equal+0x54>  // b.any
ffff00000008ad44:	f94017e0 	ldr	x0, [sp, #40]
ffff00000008ad48:	91002000 	add	x0, x0, #0x8
ffff00000008ad4c:	52800062 	mov	w2, #0x3                   	// #3
ffff00000008ad50:	f9400fe1 	ldr	x1, [sp, #24]
ffff00000008ad54:	97ffd4ef 	bl	ffff000000080110 <memcmp>
ffff00000008ad58:	7100001f 	cmp	w0, #0x0
ffff00000008ad5c:	54000061 	b.ne	ffff00000008ad68 <is_file_name_equal+0x54>  // b.any
ffff00000008ad60:	52800020 	mov	w0, #0x1                   	// #1
ffff00000008ad64:	3900ffe0 	strb	w0, [sp, #63]
ffff00000008ad68:	3940ffe0 	ldrb	w0, [sp, #63]
ffff00000008ad6c:	a8c47bfd 	ldp	x29, x30, [sp], #64
ffff00000008ad70:	d65f03c0 	ret

ffff00000008ad74 <split_path>:
ffff00000008ad74:	d100c3ff 	sub	sp, sp, #0x30
ffff00000008ad78:	f9000fe0 	str	x0, [sp, #24]
ffff00000008ad7c:	f9000be1 	str	x1, [sp, #16]
ffff00000008ad80:	f90007e2 	str	x2, [sp, #8]
ffff00000008ad84:	b9002fff 	str	wzr, [sp, #44]
ffff00000008ad88:	14000014 	b	ffff00000008add8 <split_path+0x64>
ffff00000008ad8c:	b9802fe0 	ldrsw	x0, [sp, #44]
ffff00000008ad90:	f9400fe1 	ldr	x1, [sp, #24]
ffff00000008ad94:	8b000020 	add	x0, x1, x0
ffff00000008ad98:	39400000 	ldrb	w0, [x0]
ffff00000008ad9c:	7100bc1f 	cmp	w0, #0x2f
ffff00000008ada0:	54000061 	b.ne	ffff00000008adac <split_path+0x38>  // b.any
ffff00000008ada4:	52800000 	mov	w0, #0x0                   	// #0
ffff00000008ada8:	1400004e 	b	ffff00000008aee0 <split_path+0x16c>
ffff00000008adac:	b9802fe0 	ldrsw	x0, [sp, #44]
ffff00000008adb0:	f9400fe1 	ldr	x1, [sp, #24]
ffff00000008adb4:	8b000021 	add	x1, x1, x0
ffff00000008adb8:	b9802fe0 	ldrsw	x0, [sp, #44]
ffff00000008adbc:	f9400be2 	ldr	x2, [sp, #16]
ffff00000008adc0:	8b000040 	add	x0, x2, x0
ffff00000008adc4:	39400021 	ldrb	w1, [x1]
ffff00000008adc8:	39000001 	strb	w1, [x0]
ffff00000008adcc:	b9402fe0 	ldr	w0, [sp, #44]
ffff00000008add0:	11000400 	add	w0, w0, #0x1
ffff00000008add4:	b9002fe0 	str	w0, [sp, #44]
ffff00000008add8:	b9402fe0 	ldr	w0, [sp, #44]
ffff00000008addc:	71001c1f 	cmp	w0, #0x7
ffff00000008ade0:	540001ac 	b.gt	ffff00000008ae14 <split_path+0xa0>
ffff00000008ade4:	b9802fe0 	ldrsw	x0, [sp, #44]
ffff00000008ade8:	f9400fe1 	ldr	x1, [sp, #24]
ffff00000008adec:	8b000020 	add	x0, x1, x0
ffff00000008adf0:	39400000 	ldrb	w0, [x0]
ffff00000008adf4:	7100b81f 	cmp	w0, #0x2e
ffff00000008adf8:	540000e0 	b.eq	ffff00000008ae14 <split_path+0xa0>  // b.none
ffff00000008adfc:	b9802fe0 	ldrsw	x0, [sp, #44]
ffff00000008ae00:	f9400fe1 	ldr	x1, [sp, #24]
ffff00000008ae04:	8b000020 	add	x0, x1, x0
ffff00000008ae08:	39400000 	ldrb	w0, [x0]
ffff00000008ae0c:	7100001f 	cmp	w0, #0x0
ffff00000008ae10:	54fffbe1 	b.ne	ffff00000008ad8c <split_path+0x18>  // b.any
ffff00000008ae14:	b9802fe0 	ldrsw	x0, [sp, #44]
ffff00000008ae18:	f9400fe1 	ldr	x1, [sp, #24]
ffff00000008ae1c:	8b000020 	add	x0, x1, x0
ffff00000008ae20:	39400000 	ldrb	w0, [x0]
ffff00000008ae24:	7100b81f 	cmp	w0, #0x2e
ffff00000008ae28:	540004a1 	b.ne	ffff00000008aebc <split_path+0x148>  // b.any
ffff00000008ae2c:	b9402fe0 	ldr	w0, [sp, #44]
ffff00000008ae30:	11000400 	add	w0, w0, #0x1
ffff00000008ae34:	b9002fe0 	str	w0, [sp, #44]
ffff00000008ae38:	b9002bff 	str	wzr, [sp, #40]
ffff00000008ae3c:	14000017 	b	ffff00000008ae98 <split_path+0x124>
ffff00000008ae40:	b9802fe0 	ldrsw	x0, [sp, #44]
ffff00000008ae44:	f9400fe1 	ldr	x1, [sp, #24]
ffff00000008ae48:	8b000020 	add	x0, x1, x0
ffff00000008ae4c:	39400000 	ldrb	w0, [x0]
ffff00000008ae50:	7100bc1f 	cmp	w0, #0x2f
ffff00000008ae54:	54000061 	b.ne	ffff00000008ae60 <split_path+0xec>  // b.any
ffff00000008ae58:	52800000 	mov	w0, #0x0                   	// #0
ffff00000008ae5c:	14000021 	b	ffff00000008aee0 <split_path+0x16c>
ffff00000008ae60:	b9802fe0 	ldrsw	x0, [sp, #44]
ffff00000008ae64:	f9400fe1 	ldr	x1, [sp, #24]
ffff00000008ae68:	8b000021 	add	x1, x1, x0
ffff00000008ae6c:	b9802be0 	ldrsw	x0, [sp, #40]
ffff00000008ae70:	f94007e2 	ldr	x2, [sp, #8]
ffff00000008ae74:	8b000040 	add	x0, x2, x0
ffff00000008ae78:	39400021 	ldrb	w1, [x1]
ffff00000008ae7c:	39000001 	strb	w1, [x0]
ffff00000008ae80:	b9402fe0 	ldr	w0, [sp, #44]
ffff00000008ae84:	11000400 	add	w0, w0, #0x1
ffff00000008ae88:	b9002fe0 	str	w0, [sp, #44]
ffff00000008ae8c:	b9402be0 	ldr	w0, [sp, #40]
ffff00000008ae90:	11000400 	add	w0, w0, #0x1
ffff00000008ae94:	b9002be0 	str	w0, [sp, #40]
ffff00000008ae98:	b9402be0 	ldr	w0, [sp, #40]
ffff00000008ae9c:	7100081f 	cmp	w0, #0x2
ffff00000008aea0:	540000ec 	b.gt	ffff00000008aebc <split_path+0x148>
ffff00000008aea4:	b9802fe0 	ldrsw	x0, [sp, #44]
ffff00000008aea8:	f9400fe1 	ldr	x1, [sp, #24]
ffff00000008aeac:	8b000020 	add	x0, x1, x0
ffff00000008aeb0:	39400000 	ldrb	w0, [x0]
ffff00000008aeb4:	7100001f 	cmp	w0, #0x0
ffff00000008aeb8:	54fffc41 	b.ne	ffff00000008ae40 <split_path+0xcc>  // b.any
ffff00000008aebc:	b9802fe0 	ldrsw	x0, [sp, #44]
ffff00000008aec0:	f9400fe1 	ldr	x1, [sp, #24]
ffff00000008aec4:	8b000020 	add	x0, x1, x0
ffff00000008aec8:	39400000 	ldrb	w0, [x0]
ffff00000008aecc:	7100001f 	cmp	w0, #0x0
ffff00000008aed0:	54000060 	b.eq	ffff00000008aedc <split_path+0x168>  // b.none
ffff00000008aed4:	52800000 	mov	w0, #0x0                   	// #0
ffff00000008aed8:	14000002 	b	ffff00000008aee0 <split_path+0x16c>
ffff00000008aedc:	52800020 	mov	w0, #0x1                   	// #1
ffff00000008aee0:	9100c3ff 	add	sp, sp, #0x30
ffff00000008aee4:	d65f03c0 	ret

ffff00000008aee8 <search_file>:
ffff00000008aee8:	a9bb7bfd 	stp	x29, x30, [sp, #-80]!
ffff00000008aeec:	910003fd 	mov	x29, sp
ffff00000008aef0:	f9000fe0 	str	x0, [sp, #24]
ffff00000008aef4:	b203c3e0 	mov	x0, #0x2020202020202020    	// #2314885530818453536
ffff00000008aef8:	f9001be0 	str	x0, [sp, #48]
ffff00000008aefc:	90000020 	adrp	x0, ffff00000008e000 <_fs_start+0x294>
ffff00000008af00:	9100a001 	add	x1, x0, #0x28
ffff00000008af04:	9100a3e0 	add	x0, sp, #0x28
ffff00000008af08:	79400022 	ldrh	w2, [x1]
ffff00000008af0c:	79000002 	strh	w2, [x0]
ffff00000008af10:	39400821 	ldrb	w1, [x1, #2]
ffff00000008af14:	39000801 	strb	w1, [x0, #2]
ffff00000008af18:	9100a3e1 	add	x1, sp, #0x28
ffff00000008af1c:	9100c3e0 	add	x0, sp, #0x30
ffff00000008af20:	aa0103e2 	mov	x2, x1
ffff00000008af24:	aa0003e1 	mov	x1, x0
ffff00000008af28:	f9400fe0 	ldr	x0, [sp, #24]
ffff00000008af2c:	97ffff92 	bl	ffff00000008ad74 <split_path>
ffff00000008af30:	39012fe0 	strb	w0, [sp, #75]
ffff00000008af34:	39412fe0 	ldrb	w0, [sp, #75]
ffff00000008af38:	12000000 	and	w0, w0, #0x1
ffff00000008af3c:	7100001f 	cmp	w0, #0x0
ffff00000008af40:	54000660 	b.eq	ffff00000008b00c <search_file+0x124>  // b.none
ffff00000008af44:	97ffff55 	bl	ffff00000008ac98 <get_root_directory_count>
ffff00000008af48:	b90047e0 	str	w0, [sp, #68]
ffff00000008af4c:	97ffff5b 	bl	ffff00000008acb8 <get_root_directory>
ffff00000008af50:	f9001fe0 	str	x0, [sp, #56]
ffff00000008af54:	b9004fff 	str	wzr, [sp, #76]
ffff00000008af58:	14000029 	b	ffff00000008affc <search_file+0x114>
ffff00000008af5c:	b9404fe0 	ldr	w0, [sp, #76]
ffff00000008af60:	d37be800 	lsl	x0, x0, #5
ffff00000008af64:	f9401fe1 	ldr	x1, [sp, #56]
ffff00000008af68:	8b000020 	add	x0, x1, x0
ffff00000008af6c:	39400000 	ldrb	w0, [x0]
ffff00000008af70:	7100001f 	cmp	w0, #0x0
ffff00000008af74:	54000380 	b.eq	ffff00000008afe4 <search_file+0xfc>  // b.none
ffff00000008af78:	b9404fe0 	ldr	w0, [sp, #76]
ffff00000008af7c:	d37be800 	lsl	x0, x0, #5
ffff00000008af80:	f9401fe1 	ldr	x1, [sp, #56]
ffff00000008af84:	8b000020 	add	x0, x1, x0
ffff00000008af88:	39400000 	ldrb	w0, [x0]
ffff00000008af8c:	7103941f 	cmp	w0, #0xe5
ffff00000008af90:	540002a0 	b.eq	ffff00000008afe4 <search_file+0xfc>  // b.none
ffff00000008af94:	b9404fe0 	ldr	w0, [sp, #76]
ffff00000008af98:	d37be800 	lsl	x0, x0, #5
ffff00000008af9c:	f9401fe1 	ldr	x1, [sp, #56]
ffff00000008afa0:	8b000020 	add	x0, x1, x0
ffff00000008afa4:	39402c00 	ldrb	w0, [x0, #11]
ffff00000008afa8:	71003c1f 	cmp	w0, #0xf
ffff00000008afac:	54000200 	b.eq	ffff00000008afec <search_file+0x104>  // b.none
ffff00000008afb0:	b9404fe0 	ldr	w0, [sp, #76]
ffff00000008afb4:	d37be800 	lsl	x0, x0, #5
ffff00000008afb8:	f9401fe1 	ldr	x1, [sp, #56]
ffff00000008afbc:	8b000020 	add	x0, x1, x0
ffff00000008afc0:	9100a3e2 	add	x2, sp, #0x28
ffff00000008afc4:	9100c3e1 	add	x1, sp, #0x30
ffff00000008afc8:	97ffff53 	bl	ffff00000008ad14 <is_file_name_equal>
ffff00000008afcc:	12001c00 	and	w0, w0, #0xff
ffff00000008afd0:	12000000 	and	w0, w0, #0x1
ffff00000008afd4:	7100001f 	cmp	w0, #0x0
ffff00000008afd8:	540000c0 	b.eq	ffff00000008aff0 <search_file+0x108>  // b.none
ffff00000008afdc:	b9404fe0 	ldr	w0, [sp, #76]
ffff00000008afe0:	1400000c 	b	ffff00000008b010 <search_file+0x128>
ffff00000008afe4:	d503201f 	nop
ffff00000008afe8:	14000002 	b	ffff00000008aff0 <search_file+0x108>
ffff00000008afec:	d503201f 	nop
ffff00000008aff0:	b9404fe0 	ldr	w0, [sp, #76]
ffff00000008aff4:	11000400 	add	w0, w0, #0x1
ffff00000008aff8:	b9004fe0 	str	w0, [sp, #76]
ffff00000008affc:	b9404fe1 	ldr	w1, [sp, #76]
ffff00000008b000:	b94047e0 	ldr	w0, [sp, #68]
ffff00000008b004:	6b00003f 	cmp	w1, w0
ffff00000008b008:	54fffaa3 	b.cc	ffff00000008af5c <search_file+0x74>  // b.lo, b.ul, b.last
ffff00000008b00c:	12800000 	mov	w0, #0xffffffff            	// #-1
ffff00000008b010:	a8c57bfd 	ldp	x29, x30, [sp], #80
ffff00000008b014:	d65f03c0 	ret

ffff00000008b018 <read_raw_data>:
ffff00000008b018:	a9ba7bfd 	stp	x29, x30, [sp, #-96]!
ffff00000008b01c:	910003fd 	mov	x29, sp
ffff00000008b020:	b9002fe0 	str	w0, [sp, #44]
ffff00000008b024:	f90013e1 	str	x1, [sp, #32]
ffff00000008b028:	b9002be2 	str	w2, [sp, #40]
ffff00000008b02c:	b9001fe3 	str	w3, [sp, #28]
ffff00000008b030:	b9005fff 	str	wzr, [sp, #92]
ffff00000008b034:	97ffff0d 	bl	ffff00000008ac68 <get_cluster_size>
ffff00000008b038:	b90053e0 	str	w0, [sp, #80]
ffff00000008b03c:	b9402fe0 	ldr	w0, [sp, #44]
ffff00000008b040:	b9005be0 	str	w0, [sp, #88]
ffff00000008b044:	b9402be1 	ldr	w1, [sp, #40]
ffff00000008b048:	b94053e0 	ldr	w0, [sp, #80]
ffff00000008b04c:	1ac00820 	udiv	w0, w1, w0
ffff00000008b050:	b9004fe0 	str	w0, [sp, #76]
ffff00000008b054:	b9402be0 	ldr	w0, [sp, #40]
ffff00000008b058:	b94053e1 	ldr	w1, [sp, #80]
ffff00000008b05c:	1ac10802 	udiv	w2, w0, w1
ffff00000008b060:	b94053e1 	ldr	w1, [sp, #80]
ffff00000008b064:	1b017c41 	mul	w1, w2, w1
ffff00000008b068:	4b010000 	sub	w0, w0, w1
ffff00000008b06c:	b9004be0 	str	w0, [sp, #72]
ffff00000008b070:	b90057ff 	str	wzr, [sp, #84]
ffff00000008b074:	14000010 	b	ffff00000008b0b4 <read_raw_data+0x9c>
ffff00000008b078:	b9405be0 	ldr	w0, [sp, #88]
ffff00000008b07c:	97fffebd 	bl	ffff00000008ab70 <get_cluster_value>
ffff00000008b080:	12003c00 	and	w0, w0, #0xffff
ffff00000008b084:	b9005be0 	str	w0, [sp, #88]
ffff00000008b088:	b9405be1 	ldr	w1, [sp, #88]
ffff00000008b08c:	529ffec0 	mov	w0, #0xfff6                	// #65526
ffff00000008b090:	6b00003f 	cmp	w1, w0
ffff00000008b094:	540000a9 	b.ls	ffff00000008b0a8 <read_raw_data+0x90>  // b.plast
ffff00000008b098:	d28015a1 	mov	x1, #0xad                  	// #173
ffff00000008b09c:	f0000000 	adrp	x0, ffff00000008e000 <_fs_start+0x294>
ffff00000008b0a0:	91004000 	add	x0, x0, #0x10
ffff00000008b0a4:	97ffd72e 	bl	ffff000000080d5c <error_check>
ffff00000008b0a8:	b94057e0 	ldr	w0, [sp, #84]
ffff00000008b0ac:	11000400 	add	w0, w0, #0x1
ffff00000008b0b0:	b90057e0 	str	w0, [sp, #84]
ffff00000008b0b4:	b94057e1 	ldr	w1, [sp, #84]
ffff00000008b0b8:	b9404fe0 	ldr	w0, [sp, #76]
ffff00000008b0bc:	6b00003f 	cmp	w1, w0
ffff00000008b0c0:	54fffdc3 	b.cc	ffff00000008b078 <read_raw_data+0x60>  // b.lo, b.ul, b.last
ffff00000008b0c4:	97fffe8d 	bl	ffff00000008aaf8 <get_fs_bpb>
ffff00000008b0c8:	f90023e0 	str	x0, [sp, #64]
ffff00000008b0cc:	b9404be0 	ldr	w0, [sp, #72]
ffff00000008b0d0:	7100001f 	cmp	w0, #0x0
ffff00000008b0d4:	54000920 	b.eq	ffff00000008b1f8 <read_raw_data+0x1e0>  // b.none
ffff00000008b0d8:	b9404be1 	ldr	w1, [sp, #72]
ffff00000008b0dc:	b9401fe0 	ldr	w0, [sp, #28]
ffff00000008b0e0:	0b000020 	add	w0, w1, w0
ffff00000008b0e4:	b94053e1 	ldr	w1, [sp, #80]
ffff00000008b0e8:	6b00003f 	cmp	w1, w0
ffff00000008b0ec:	540000a2 	b.cs	ffff00000008b100 <read_raw_data+0xe8>  // b.hs, b.nlast
ffff00000008b0f0:	b94053e1 	ldr	w1, [sp, #80]
ffff00000008b0f4:	b9404be0 	ldr	w0, [sp, #72]
ffff00000008b0f8:	4b000020 	sub	w0, w1, w0
ffff00000008b0fc:	14000002 	b	ffff00000008b104 <read_raw_data+0xec>
ffff00000008b100:	b9401fe0 	ldr	w0, [sp, #28]
ffff00000008b104:	b9005fe0 	str	w0, [sp, #92]
ffff00000008b108:	b9405be0 	ldr	w0, [sp, #88]
ffff00000008b10c:	97fffea5 	bl	ffff00000008aba0 <get_cluster_offset>
ffff00000008b110:	2a0003e1 	mov	w1, w0
ffff00000008b114:	f94023e0 	ldr	x0, [sp, #64]
ffff00000008b118:	8b000020 	add	x0, x1, x0
ffff00000008b11c:	f9001fe0 	str	x0, [sp, #56]
ffff00000008b120:	b9404be0 	ldr	w0, [sp, #72]
ffff00000008b124:	f9401fe1 	ldr	x1, [sp, #56]
ffff00000008b128:	8b000020 	add	x0, x1, x0
ffff00000008b12c:	b9405fe2 	ldr	w2, [sp, #92]
ffff00000008b130:	aa0003e1 	mov	x1, x0
ffff00000008b134:	f94013e0 	ldr	x0, [sp, #32]
ffff00000008b138:	97ffd401 	bl	ffff00000008013c <memcpy>
ffff00000008b13c:	b9405fe0 	ldr	w0, [sp, #92]
ffff00000008b140:	f94013e1 	ldr	x1, [sp, #32]
ffff00000008b144:	8b000020 	add	x0, x1, x0
ffff00000008b148:	f90013e0 	str	x0, [sp, #32]
ffff00000008b14c:	b9405be0 	ldr	w0, [sp, #88]
ffff00000008b150:	97fffe88 	bl	ffff00000008ab70 <get_cluster_value>
ffff00000008b154:	12003c00 	and	w0, w0, #0xffff
ffff00000008b158:	b9005be0 	str	w0, [sp, #88]
ffff00000008b15c:	14000027 	b	ffff00000008b1f8 <read_raw_data+0x1e0>
ffff00000008b160:	b9405be0 	ldr	w0, [sp, #88]
ffff00000008b164:	97fffe8f 	bl	ffff00000008aba0 <get_cluster_offset>
ffff00000008b168:	2a0003e1 	mov	w1, w0
ffff00000008b16c:	f94023e0 	ldr	x0, [sp, #64]
ffff00000008b170:	8b000020 	add	x0, x1, x0
ffff00000008b174:	f9001fe0 	str	x0, [sp, #56]
ffff00000008b178:	b9405fe1 	ldr	w1, [sp, #92]
ffff00000008b17c:	b94053e0 	ldr	w0, [sp, #80]
ffff00000008b180:	0b000020 	add	w0, w1, w0
ffff00000008b184:	b9401fe1 	ldr	w1, [sp, #28]
ffff00000008b188:	6b00003f 	cmp	w1, w0
ffff00000008b18c:	54000168 	b.hi	ffff00000008b1b8 <read_raw_data+0x1a0>  // b.pmore
ffff00000008b190:	b9401fe1 	ldr	w1, [sp, #28]
ffff00000008b194:	b9405fe0 	ldr	w0, [sp, #92]
ffff00000008b198:	4b000020 	sub	w0, w1, w0
ffff00000008b19c:	2a0003e2 	mov	w2, w0
ffff00000008b1a0:	f9401fe1 	ldr	x1, [sp, #56]
ffff00000008b1a4:	f94013e0 	ldr	x0, [sp, #32]
ffff00000008b1a8:	97ffd3e5 	bl	ffff00000008013c <memcpy>
ffff00000008b1ac:	b9401fe0 	ldr	w0, [sp, #28]
ffff00000008b1b0:	b9005fe0 	str	w0, [sp, #92]
ffff00000008b1b4:	14000019 	b	ffff00000008b218 <read_raw_data+0x200>
ffff00000008b1b8:	b94053e2 	ldr	w2, [sp, #80]
ffff00000008b1bc:	f9401fe1 	ldr	x1, [sp, #56]
ffff00000008b1c0:	f94013e0 	ldr	x0, [sp, #32]
ffff00000008b1c4:	97ffd3de 	bl	ffff00000008013c <memcpy>
ffff00000008b1c8:	b94053e0 	ldr	w0, [sp, #80]
ffff00000008b1cc:	f94013e1 	ldr	x1, [sp, #32]
ffff00000008b1d0:	8b000020 	add	x0, x1, x0
ffff00000008b1d4:	f90013e0 	str	x0, [sp, #32]
ffff00000008b1d8:	b9405fe1 	ldr	w1, [sp, #92]
ffff00000008b1dc:	b94053e0 	ldr	w0, [sp, #80]
ffff00000008b1e0:	0b000020 	add	w0, w1, w0
ffff00000008b1e4:	b9005fe0 	str	w0, [sp, #92]
ffff00000008b1e8:	b9405be0 	ldr	w0, [sp, #88]
ffff00000008b1ec:	97fffe61 	bl	ffff00000008ab70 <get_cluster_value>
ffff00000008b1f0:	12003c00 	and	w0, w0, #0xffff
ffff00000008b1f4:	b9005be0 	str	w0, [sp, #88]
ffff00000008b1f8:	b9405fe1 	ldr	w1, [sp, #92]
ffff00000008b1fc:	b9401fe0 	ldr	w0, [sp, #28]
ffff00000008b200:	6b00003f 	cmp	w1, w0
ffff00000008b204:	540000a2 	b.cs	ffff00000008b218 <read_raw_data+0x200>  // b.hs, b.nlast
ffff00000008b208:	b9405be1 	ldr	w1, [sp, #88]
ffff00000008b20c:	529ffec0 	mov	w0, #0xfff6                	// #65526
ffff00000008b210:	6b00003f 	cmp	w1, w0
ffff00000008b214:	54fffa69 	b.ls	ffff00000008b160 <read_raw_data+0x148>  // b.plast
ffff00000008b218:	b9405fe0 	ldr	w0, [sp, #92]
ffff00000008b21c:	a8c67bfd 	ldp	x29, x30, [sp], #96
ffff00000008b220:	d65f03c0 	ret

ffff00000008b224 <read_file>:
ffff00000008b224:	a9bc7bfd 	stp	x29, x30, [sp, #-64]!
ffff00000008b228:	910003fd 	mov	x29, sp
ffff00000008b22c:	f90017e0 	str	x0, [sp, #40]
ffff00000008b230:	b90027e1 	str	w1, [sp, #36]
ffff00000008b234:	f9000fe2 	str	x2, [sp, #24]
ffff00000008b238:	b90023e3 	str	w3, [sp, #32]
ffff00000008b23c:	f94017e0 	ldr	x0, [sp, #40]
ffff00000008b240:	b98027e1 	ldrsw	x1, [sp, #36]
ffff00000008b244:	91001821 	add	x1, x1, #0x6
ffff00000008b248:	f8617800 	ldr	x0, [x0, x1, lsl #3]
ffff00000008b24c:	b9400800 	ldr	w0, [x0, #8]
ffff00000008b250:	b9003fe0 	str	w0, [sp, #60]
ffff00000008b254:	f94017e0 	ldr	x0, [sp, #40]
ffff00000008b258:	b98027e1 	ldrsw	x1, [sp, #36]
ffff00000008b25c:	91001821 	add	x1, x1, #0x6
ffff00000008b260:	f8617800 	ldr	x0, [x0, x1, lsl #3]
ffff00000008b264:	f9400000 	ldr	x0, [x0]
ffff00000008b268:	b9401400 	ldr	w0, [x0, #20]
ffff00000008b26c:	b9003be0 	str	w0, [sp, #56]
ffff00000008b270:	b9403fe1 	ldr	w1, [sp, #60]
ffff00000008b274:	b94023e0 	ldr	w0, [sp, #32]
ffff00000008b278:	0b000020 	add	w0, w1, w0
ffff00000008b27c:	b9403be1 	ldr	w1, [sp, #56]
ffff00000008b280:	6b00003f 	cmp	w1, w0
ffff00000008b284:	54000062 	b.cs	ffff00000008b290 <read_file+0x6c>  // b.hs, b.nlast
ffff00000008b288:	12800000 	mov	w0, #0xffffffff            	// #-1
ffff00000008b28c:	14000019 	b	ffff00000008b2f0 <read_file+0xcc>
ffff00000008b290:	f94017e0 	ldr	x0, [sp, #40]
ffff00000008b294:	b98027e1 	ldrsw	x1, [sp, #36]
ffff00000008b298:	91001821 	add	x1, x1, #0x6
ffff00000008b29c:	f8617800 	ldr	x0, [x0, x1, lsl #3]
ffff00000008b2a0:	f9400000 	ldr	x0, [x0]
ffff00000008b2a4:	b9400c00 	ldr	w0, [x0, #12]
ffff00000008b2a8:	b94023e3 	ldr	w3, [sp, #32]
ffff00000008b2ac:	b9403fe2 	ldr	w2, [sp, #60]
ffff00000008b2b0:	f9400fe1 	ldr	x1, [sp, #24]
ffff00000008b2b4:	97ffff59 	bl	ffff00000008b018 <read_raw_data>
ffff00000008b2b8:	b90037e0 	str	w0, [sp, #52]
ffff00000008b2bc:	f94017e0 	ldr	x0, [sp, #40]
ffff00000008b2c0:	b98027e1 	ldrsw	x1, [sp, #36]
ffff00000008b2c4:	91001821 	add	x1, x1, #0x6
ffff00000008b2c8:	f8617800 	ldr	x0, [x0, x1, lsl #3]
ffff00000008b2cc:	b9400802 	ldr	w2, [x0, #8]
ffff00000008b2d0:	f94017e0 	ldr	x0, [sp, #40]
ffff00000008b2d4:	b98027e1 	ldrsw	x1, [sp, #36]
ffff00000008b2d8:	91001821 	add	x1, x1, #0x6
ffff00000008b2dc:	f8617800 	ldr	x0, [x0, x1, lsl #3]
ffff00000008b2e0:	b94037e1 	ldr	w1, [sp, #52]
ffff00000008b2e4:	0b010041 	add	w1, w2, w1
ffff00000008b2e8:	b9000801 	str	w1, [x0, #8]
ffff00000008b2ec:	b94037e0 	ldr	w0, [sp, #52]
ffff00000008b2f0:	a8c47bfd 	ldp	x29, x30, [sp], #64
ffff00000008b2f4:	d65f03c0 	ret

ffff00000008b2f8 <get_fcb>:
ffff00000008b2f8:	a9bd7bfd 	stp	x29, x30, [sp, #-48]!
ffff00000008b2fc:	910003fd 	mov	x29, sp
ffff00000008b300:	b9001fe0 	str	w0, [sp, #28]
ffff00000008b304:	90000020 	adrp	x0, ffff00000008f000 <font_data+0xf68>
ffff00000008b308:	913f2000 	add	x0, x0, #0xfc8
ffff00000008b30c:	f9400002 	ldr	x2, [x0]
ffff00000008b310:	b9401fe1 	ldr	w1, [sp, #28]
ffff00000008b314:	aa0103e0 	mov	x0, x1
ffff00000008b318:	d37df000 	lsl	x0, x0, #3
ffff00000008b31c:	cb010000 	sub	x0, x0, x1
ffff00000008b320:	d37ef400 	lsl	x0, x0, #2
ffff00000008b324:	8b000040 	add	x0, x2, x0
ffff00000008b328:	b9401800 	ldr	w0, [x0, #24]
ffff00000008b32c:	7100001f 	cmp	w0, #0x0
ffff00000008b330:	54000a41 	b.ne	ffff00000008b478 <get_fcb+0x180>  // b.any
ffff00000008b334:	97fffe61 	bl	ffff00000008acb8 <get_root_directory>
ffff00000008b338:	f90017e0 	str	x0, [sp, #40]
ffff00000008b33c:	90000020 	adrp	x0, ffff00000008f000 <font_data+0xf68>
ffff00000008b340:	913f2000 	add	x0, x0, #0xfc8
ffff00000008b344:	f9400002 	ldr	x2, [x0]
ffff00000008b348:	b9401fe1 	ldr	w1, [sp, #28]
ffff00000008b34c:	aa0103e0 	mov	x0, x1
ffff00000008b350:	d37df000 	lsl	x0, x0, #3
ffff00000008b354:	cb010000 	sub	x0, x0, x1
ffff00000008b358:	d37ef400 	lsl	x0, x0, #2
ffff00000008b35c:	8b000040 	add	x0, x2, x0
ffff00000008b360:	b9401fe1 	ldr	w1, [sp, #28]
ffff00000008b364:	b9001001 	str	w1, [x0, #16]
ffff00000008b368:	b9401fe0 	ldr	w0, [sp, #28]
ffff00000008b36c:	d37be800 	lsl	x0, x0, #5
ffff00000008b370:	f94017e1 	ldr	x1, [sp, #40]
ffff00000008b374:	8b000022 	add	x2, x1, x0
ffff00000008b378:	90000020 	adrp	x0, ffff00000008f000 <font_data+0xf68>
ffff00000008b37c:	913f2000 	add	x0, x0, #0xfc8
ffff00000008b380:	f9400003 	ldr	x3, [x0]
ffff00000008b384:	b9401fe1 	ldr	w1, [sp, #28]
ffff00000008b388:	aa0103e0 	mov	x0, x1
ffff00000008b38c:	d37df000 	lsl	x0, x0, #3
ffff00000008b390:	cb010000 	sub	x0, x0, x1
ffff00000008b394:	d37ef400 	lsl	x0, x0, #2
ffff00000008b398:	8b000060 	add	x0, x3, x0
ffff00000008b39c:	b9401c41 	ldr	w1, [x2, #28]
ffff00000008b3a0:	b9001401 	str	w1, [x0, #20]
ffff00000008b3a4:	b9401fe0 	ldr	w0, [sp, #28]
ffff00000008b3a8:	d37be800 	lsl	x0, x0, #5
ffff00000008b3ac:	f94017e1 	ldr	x1, [sp, #40]
ffff00000008b3b0:	8b000020 	add	x0, x1, x0
ffff00000008b3b4:	79403403 	ldrh	w3, [x0, #26]
ffff00000008b3b8:	90000020 	adrp	x0, ffff00000008f000 <font_data+0xf68>
ffff00000008b3bc:	913f2000 	add	x0, x0, #0xfc8
ffff00000008b3c0:	f9400002 	ldr	x2, [x0]
ffff00000008b3c4:	b9401fe1 	ldr	w1, [sp, #28]
ffff00000008b3c8:	aa0103e0 	mov	x0, x1
ffff00000008b3cc:	d37df000 	lsl	x0, x0, #3
ffff00000008b3d0:	cb010000 	sub	x0, x0, x1
ffff00000008b3d4:	d37ef400 	lsl	x0, x0, #2
ffff00000008b3d8:	8b000040 	add	x0, x2, x0
ffff00000008b3dc:	2a0303e1 	mov	w1, w3
ffff00000008b3e0:	b9000c01 	str	w1, [x0, #12]
ffff00000008b3e4:	90000020 	adrp	x0, ffff00000008f000 <font_data+0xf68>
ffff00000008b3e8:	913f2000 	add	x0, x0, #0xfc8
ffff00000008b3ec:	f9400002 	ldr	x2, [x0]
ffff00000008b3f0:	b9401fe1 	ldr	w1, [sp, #28]
ffff00000008b3f4:	aa0103e0 	mov	x0, x1
ffff00000008b3f8:	d37df000 	lsl	x0, x0, #3
ffff00000008b3fc:	cb010000 	sub	x0, x0, x1
ffff00000008b400:	d37ef400 	lsl	x0, x0, #2
ffff00000008b404:	8b000040 	add	x0, x2, x0
ffff00000008b408:	aa0003e3 	mov	x3, x0
ffff00000008b40c:	b9401fe0 	ldr	w0, [sp, #28]
ffff00000008b410:	d37be800 	lsl	x0, x0, #5
ffff00000008b414:	f94017e1 	ldr	x1, [sp, #40]
ffff00000008b418:	8b000020 	add	x0, x1, x0
ffff00000008b41c:	52800102 	mov	w2, #0x8                   	// #8
ffff00000008b420:	aa0003e1 	mov	x1, x0
ffff00000008b424:	aa0303e0 	mov	x0, x3
ffff00000008b428:	97ffd345 	bl	ffff00000008013c <memcpy>
ffff00000008b42c:	90000020 	adrp	x0, ffff00000008f000 <font_data+0xf68>
ffff00000008b430:	913f2000 	add	x0, x0, #0xfc8
ffff00000008b434:	f9400002 	ldr	x2, [x0]
ffff00000008b438:	b9401fe1 	ldr	w1, [sp, #28]
ffff00000008b43c:	aa0103e0 	mov	x0, x1
ffff00000008b440:	d37df000 	lsl	x0, x0, #3
ffff00000008b444:	cb010000 	sub	x0, x0, x1
ffff00000008b448:	d37ef400 	lsl	x0, x0, #2
ffff00000008b44c:	8b000040 	add	x0, x2, x0
ffff00000008b450:	91002003 	add	x3, x0, #0x8
ffff00000008b454:	b9401fe0 	ldr	w0, [sp, #28]
ffff00000008b458:	d37be800 	lsl	x0, x0, #5
ffff00000008b45c:	f94017e1 	ldr	x1, [sp, #40]
ffff00000008b460:	8b000020 	add	x0, x1, x0
ffff00000008b464:	91002000 	add	x0, x0, #0x8
ffff00000008b468:	52800062 	mov	w2, #0x3                   	// #3
ffff00000008b46c:	aa0003e1 	mov	x1, x0
ffff00000008b470:	aa0303e0 	mov	x0, x3
ffff00000008b474:	97ffd332 	bl	ffff00000008013c <memcpy>
ffff00000008b478:	90000020 	adrp	x0, ffff00000008f000 <font_data+0xf68>
ffff00000008b47c:	913f2000 	add	x0, x0, #0xfc8
ffff00000008b480:	f9400002 	ldr	x2, [x0]
ffff00000008b484:	b9401fe1 	ldr	w1, [sp, #28]
ffff00000008b488:	aa0103e0 	mov	x0, x1
ffff00000008b48c:	d37df000 	lsl	x0, x0, #3
ffff00000008b490:	cb010000 	sub	x0, x0, x1
ffff00000008b494:	d37ef400 	lsl	x0, x0, #2
ffff00000008b498:	8b000040 	add	x0, x2, x0
ffff00000008b49c:	b9401801 	ldr	w1, [x0, #24]
ffff00000008b4a0:	11000421 	add	w1, w1, #0x1
ffff00000008b4a4:	b9001801 	str	w1, [x0, #24]
ffff00000008b4a8:	b9401fe0 	ldr	w0, [sp, #28]
ffff00000008b4ac:	a8c37bfd 	ldp	x29, x30, [sp], #48
ffff00000008b4b0:	d65f03c0 	ret

ffff00000008b4b4 <get_file_size>:
ffff00000008b4b4:	d10043ff 	sub	sp, sp, #0x10
ffff00000008b4b8:	f90007e0 	str	x0, [sp, #8]
ffff00000008b4bc:	b90007e1 	str	w1, [sp, #4]
ffff00000008b4c0:	f94007e0 	ldr	x0, [sp, #8]
ffff00000008b4c4:	b98007e1 	ldrsw	x1, [sp, #4]
ffff00000008b4c8:	91001821 	add	x1, x1, #0x6
ffff00000008b4cc:	f8617800 	ldr	x0, [x0, x1, lsl #3]
ffff00000008b4d0:	f9400000 	ldr	x0, [x0]
ffff00000008b4d4:	b9401400 	ldr	w0, [x0, #20]
ffff00000008b4d8:	910043ff 	add	sp, sp, #0x10
ffff00000008b4dc:	d65f03c0 	ret

ffff00000008b4e0 <open_file>:
ffff00000008b4e0:	a9bc7bfd 	stp	x29, x30, [sp, #-64]!
ffff00000008b4e4:	910003fd 	mov	x29, sp
ffff00000008b4e8:	f9000fe0 	str	x0, [sp, #24]
ffff00000008b4ec:	f9000be1 	str	x1, [sp, #16]
ffff00000008b4f0:	12800000 	mov	w0, #0xffffffff            	// #-1
ffff00000008b4f4:	b9003fe0 	str	w0, [sp, #60]
ffff00000008b4f8:	12800000 	mov	w0, #0xffffffff            	// #-1
ffff00000008b4fc:	b9003be0 	str	w0, [sp, #56]
ffff00000008b500:	b90037ff 	str	wzr, [sp, #52]
ffff00000008b504:	1400000d 	b	ffff00000008b538 <open_file+0x58>
ffff00000008b508:	f9400fe0 	ldr	x0, [sp, #24]
ffff00000008b50c:	b98037e1 	ldrsw	x1, [sp, #52]
ffff00000008b510:	91001821 	add	x1, x1, #0x6
ffff00000008b514:	f8617800 	ldr	x0, [x0, x1, lsl #3]
ffff00000008b518:	f100001f 	cmp	x0, #0x0
ffff00000008b51c:	54000081 	b.ne	ffff00000008b52c <open_file+0x4c>  // b.any
ffff00000008b520:	b94037e0 	ldr	w0, [sp, #52]
ffff00000008b524:	b9003fe0 	str	w0, [sp, #60]
ffff00000008b528:	14000007 	b	ffff00000008b544 <open_file+0x64>
ffff00000008b52c:	b94037e0 	ldr	w0, [sp, #52]
ffff00000008b530:	11000400 	add	w0, w0, #0x1
ffff00000008b534:	b90037e0 	str	w0, [sp, #52]
ffff00000008b538:	b94037e0 	ldr	w0, [sp, #52]
ffff00000008b53c:	71018c1f 	cmp	w0, #0x63
ffff00000008b540:	54fffe4d 	b.le	ffff00000008b508 <open_file+0x28>
ffff00000008b544:	b9403fe0 	ldr	w0, [sp, #60]
ffff00000008b548:	3100041f 	cmn	w0, #0x1
ffff00000008b54c:	54000061 	b.ne	ffff00000008b558 <open_file+0x78>  // b.any
ffff00000008b550:	12800000 	mov	w0, #0xffffffff            	// #-1
ffff00000008b554:	14000053 	b	ffff00000008b6a0 <open_file+0x1c0>
ffff00000008b558:	b90033ff 	str	wzr, [sp, #48]
ffff00000008b55c:	14000010 	b	ffff00000008b59c <open_file+0xbc>
ffff00000008b560:	90000020 	adrp	x0, ffff00000008f000 <font_data+0xf68>
ffff00000008b564:	913f4000 	add	x0, x0, #0xfd0
ffff00000008b568:	f9400001 	ldr	x1, [x0]
ffff00000008b56c:	b98033e0 	ldrsw	x0, [sp, #48]
ffff00000008b570:	d37cec00 	lsl	x0, x0, #4
ffff00000008b574:	8b000020 	add	x0, x1, x0
ffff00000008b578:	f9400000 	ldr	x0, [x0]
ffff00000008b57c:	f100001f 	cmp	x0, #0x0
ffff00000008b580:	54000081 	b.ne	ffff00000008b590 <open_file+0xb0>  // b.any
ffff00000008b584:	b94033e0 	ldr	w0, [sp, #48]
ffff00000008b588:	b9003be0 	str	w0, [sp, #56]
ffff00000008b58c:	14000008 	b	ffff00000008b5ac <open_file+0xcc>
ffff00000008b590:	b94033e0 	ldr	w0, [sp, #48]
ffff00000008b594:	11000400 	add	w0, w0, #0x1
ffff00000008b598:	b90033e0 	str	w0, [sp, #48]
ffff00000008b59c:	b94033e1 	ldr	w1, [sp, #48]
ffff00000008b5a0:	12bfffc0 	mov	w0, #0x1ffff               	// #131071
ffff00000008b5a4:	6b00003f 	cmp	w1, w0
ffff00000008b5a8:	54fffdc9 	b.ls	ffff00000008b560 <open_file+0x80>  // b.plast
ffff00000008b5ac:	b9403be0 	ldr	w0, [sp, #56]
ffff00000008b5b0:	3100041f 	cmn	w0, #0x1
ffff00000008b5b4:	54000061 	b.ne	ffff00000008b5c0 <open_file+0xe0>  // b.any
ffff00000008b5b8:	12800000 	mov	w0, #0xffffffff            	// #-1
ffff00000008b5bc:	14000039 	b	ffff00000008b6a0 <open_file+0x1c0>
ffff00000008b5c0:	f9400be0 	ldr	x0, [sp, #16]
ffff00000008b5c4:	97fffe49 	bl	ffff00000008aee8 <search_file>
ffff00000008b5c8:	b9002fe0 	str	w0, [sp, #44]
ffff00000008b5cc:	b9402fe0 	ldr	w0, [sp, #44]
ffff00000008b5d0:	3100041f 	cmn	w0, #0x1
ffff00000008b5d4:	54000061 	b.ne	ffff00000008b5e0 <open_file+0x100>  // b.any
ffff00000008b5d8:	12800000 	mov	w0, #0xffffffff            	// #-1
ffff00000008b5dc:	14000031 	b	ffff00000008b6a0 <open_file+0x1c0>
ffff00000008b5e0:	b9402fe0 	ldr	w0, [sp, #44]
ffff00000008b5e4:	97ffff45 	bl	ffff00000008b2f8 <get_fcb>
ffff00000008b5e8:	b9002be0 	str	w0, [sp, #40]
ffff00000008b5ec:	90000020 	adrp	x0, ffff00000008f000 <font_data+0xf68>
ffff00000008b5f0:	913f4000 	add	x0, x0, #0xfd0
ffff00000008b5f4:	f9400001 	ldr	x1, [x0]
ffff00000008b5f8:	b9803be0 	ldrsw	x0, [sp, #56]
ffff00000008b5fc:	d37cec00 	lsl	x0, x0, #4
ffff00000008b600:	8b000020 	add	x0, x1, x0
ffff00000008b604:	52800202 	mov	w2, #0x10                  	// #16
ffff00000008b608:	52800001 	mov	w1, #0x0                   	// #0
ffff00000008b60c:	97ffd2bb 	bl	ffff0000000800f8 <memset>
ffff00000008b610:	90000020 	adrp	x0, ffff00000008f000 <font_data+0xf68>
ffff00000008b614:	913f2000 	add	x0, x0, #0xfc8
ffff00000008b618:	f9400002 	ldr	x2, [x0]
ffff00000008b61c:	b9402be1 	ldr	w1, [sp, #40]
ffff00000008b620:	aa0103e0 	mov	x0, x1
ffff00000008b624:	d37df000 	lsl	x0, x0, #3
ffff00000008b628:	cb010000 	sub	x0, x0, x1
ffff00000008b62c:	d37ef400 	lsl	x0, x0, #2
ffff00000008b630:	aa0003e3 	mov	x3, x0
ffff00000008b634:	90000020 	adrp	x0, ffff00000008f000 <font_data+0xf68>
ffff00000008b638:	913f4000 	add	x0, x0, #0xfd0
ffff00000008b63c:	f9400001 	ldr	x1, [x0]
ffff00000008b640:	b9803be0 	ldrsw	x0, [sp, #56]
ffff00000008b644:	d37cec00 	lsl	x0, x0, #4
ffff00000008b648:	8b000020 	add	x0, x1, x0
ffff00000008b64c:	8b030041 	add	x1, x2, x3
ffff00000008b650:	f9000001 	str	x1, [x0]
ffff00000008b654:	90000020 	adrp	x0, ffff00000008f000 <font_data+0xf68>
ffff00000008b658:	913f4000 	add	x0, x0, #0xfd0
ffff00000008b65c:	f9400001 	ldr	x1, [x0]
ffff00000008b660:	b9803be0 	ldrsw	x0, [sp, #56]
ffff00000008b664:	d37cec00 	lsl	x0, x0, #4
ffff00000008b668:	8b000020 	add	x0, x1, x0
ffff00000008b66c:	52800021 	mov	w1, #0x1                   	// #1
ffff00000008b670:	b9000c01 	str	w1, [x0, #12]
ffff00000008b674:	90000020 	adrp	x0, ffff00000008f000 <font_data+0xf68>
ffff00000008b678:	913f4000 	add	x0, x0, #0xfd0
ffff00000008b67c:	f9400001 	ldr	x1, [x0]
ffff00000008b680:	b9803be0 	ldrsw	x0, [sp, #56]
ffff00000008b684:	d37cec00 	lsl	x0, x0, #4
ffff00000008b688:	8b000022 	add	x2, x1, x0
ffff00000008b68c:	f9400fe0 	ldr	x0, [sp, #24]
ffff00000008b690:	b9803fe1 	ldrsw	x1, [sp, #60]
ffff00000008b694:	91001821 	add	x1, x1, #0x6
ffff00000008b698:	f8217802 	str	x2, [x0, x1, lsl #3]
ffff00000008b69c:	b9403fe0 	ldr	w0, [sp, #60]
ffff00000008b6a0:	a8c47bfd 	ldp	x29, x30, [sp], #64
ffff00000008b6a4:	d65f03c0 	ret

ffff00000008b6a8 <put_fcb>:
ffff00000008b6a8:	a9be7bfd 	stp	x29, x30, [sp, #-32]!
ffff00000008b6ac:	910003fd 	mov	x29, sp
ffff00000008b6b0:	f9000fe0 	str	x0, [sp, #24]
ffff00000008b6b4:	f9400fe0 	ldr	x0, [sp, #24]
ffff00000008b6b8:	b9401800 	ldr	w0, [x0, #24]
ffff00000008b6bc:	7100001f 	cmp	w0, #0x0
ffff00000008b6c0:	540000ac 	b.gt	ffff00000008b6d4 <put_fcb+0x2c>
ffff00000008b6c4:	d2802581 	mov	x1, #0x12c                 	// #300
ffff00000008b6c8:	f0000000 	adrp	x0, ffff00000008e000 <_fs_start+0x294>
ffff00000008b6cc:	91004000 	add	x0, x0, #0x10
ffff00000008b6d0:	97ffd5a3 	bl	ffff000000080d5c <error_check>
ffff00000008b6d4:	f9400fe0 	ldr	x0, [sp, #24]
ffff00000008b6d8:	b9401800 	ldr	w0, [x0, #24]
ffff00000008b6dc:	51000401 	sub	w1, w0, #0x1
ffff00000008b6e0:	f9400fe0 	ldr	x0, [sp, #24]
ffff00000008b6e4:	b9001801 	str	w1, [x0, #24]
ffff00000008b6e8:	d503201f 	nop
ffff00000008b6ec:	a8c27bfd 	ldp	x29, x30, [sp], #32
ffff00000008b6f0:	d65f03c0 	ret

ffff00000008b6f4 <close_file>:
ffff00000008b6f4:	a9be7bfd 	stp	x29, x30, [sp, #-32]!
ffff00000008b6f8:	910003fd 	mov	x29, sp
ffff00000008b6fc:	f9000fe0 	str	x0, [sp, #24]
ffff00000008b700:	b90017e1 	str	w1, [sp, #20]
ffff00000008b704:	f9400fe0 	ldr	x0, [sp, #24]
ffff00000008b708:	b98017e1 	ldrsw	x1, [sp, #20]
ffff00000008b70c:	91001821 	add	x1, x1, #0x6
ffff00000008b710:	f8617800 	ldr	x0, [x0, x1, lsl #3]
ffff00000008b714:	f9400000 	ldr	x0, [x0]
ffff00000008b718:	97ffffe4 	bl	ffff00000008b6a8 <put_fcb>
ffff00000008b71c:	f9400fe0 	ldr	x0, [sp, #24]
ffff00000008b720:	b98017e1 	ldrsw	x1, [sp, #20]
ffff00000008b724:	91001821 	add	x1, x1, #0x6
ffff00000008b728:	f8617800 	ldr	x0, [x0, x1, lsl #3]
ffff00000008b72c:	b9400c01 	ldr	w1, [x0, #12]
ffff00000008b730:	51000421 	sub	w1, w1, #0x1
ffff00000008b734:	b9000c01 	str	w1, [x0, #12]
ffff00000008b738:	f9400fe0 	ldr	x0, [sp, #24]
ffff00000008b73c:	b98017e1 	ldrsw	x1, [sp, #20]
ffff00000008b740:	91001821 	add	x1, x1, #0x6
ffff00000008b744:	f8617800 	ldr	x0, [x0, x1, lsl #3]
ffff00000008b748:	b9400c00 	ldr	w0, [x0, #12]
ffff00000008b74c:	7100001f 	cmp	w0, #0x0
ffff00000008b750:	540000c1 	b.ne	ffff00000008b768 <close_file+0x74>  // b.any
ffff00000008b754:	f9400fe0 	ldr	x0, [sp, #24]
ffff00000008b758:	b98017e1 	ldrsw	x1, [sp, #20]
ffff00000008b75c:	91001821 	add	x1, x1, #0x6
ffff00000008b760:	f8617800 	ldr	x0, [x0, x1, lsl #3]
ffff00000008b764:	f900001f 	str	xzr, [x0]
ffff00000008b768:	f9400fe0 	ldr	x0, [sp, #24]
ffff00000008b76c:	b98017e1 	ldrsw	x1, [sp, #20]
ffff00000008b770:	91001821 	add	x1, x1, #0x6
ffff00000008b774:	f821781f 	str	xzr, [x0, x1, lsl #3]
ffff00000008b778:	d503201f 	nop
ffff00000008b77c:	a8c27bfd 	ldp	x29, x30, [sp], #32
ffff00000008b780:	d65f03c0 	ret

ffff00000008b784 <read_root_directory>:
ffff00000008b784:	a9bd7bfd 	stp	x29, x30, [sp, #-48]!
ffff00000008b788:	910003fd 	mov	x29, sp
ffff00000008b78c:	f9000fe0 	str	x0, [sp, #24]
ffff00000008b790:	97fffd4a 	bl	ffff00000008acb8 <get_root_directory>
ffff00000008b794:	f90017e0 	str	x0, [sp, #40]
ffff00000008b798:	97fffd40 	bl	ffff00000008ac98 <get_root_directory_count>
ffff00000008b79c:	b90027e0 	str	w0, [sp, #36]
ffff00000008b7a0:	b94027e0 	ldr	w0, [sp, #36]
ffff00000008b7a4:	531b6800 	lsl	w0, w0, #5
ffff00000008b7a8:	2a0003e2 	mov	w2, w0
ffff00000008b7ac:	f94017e1 	ldr	x1, [sp, #40]
ffff00000008b7b0:	f9400fe0 	ldr	x0, [sp, #24]
ffff00000008b7b4:	97ffd262 	bl	ffff00000008013c <memcpy>
ffff00000008b7b8:	b94027e0 	ldr	w0, [sp, #36]
ffff00000008b7bc:	a8c37bfd 	ldp	x29, x30, [sp], #48
ffff00000008b7c0:	d65f03c0 	ret

ffff00000008b7c4 <init_fcb>:
ffff00000008b7c4:	a9bf7bfd 	stp	x29, x30, [sp, #-16]!
ffff00000008b7c8:	910003fd 	mov	x29, sp
ffff00000008b7cc:	97fffa5b 	bl	ffff00000008a138 <kalloc>
ffff00000008b7d0:	aa0003e1 	mov	x1, x0
ffff00000008b7d4:	90000020 	adrp	x0, ffff00000008f000 <font_data+0xf68>
ffff00000008b7d8:	913f2000 	add	x0, x0, #0xfc8
ffff00000008b7dc:	f9000001 	str	x1, [x0]
ffff00000008b7e0:	90000020 	adrp	x0, ffff00000008f000 <font_data+0xf68>
ffff00000008b7e4:	913f2000 	add	x0, x0, #0xfc8
ffff00000008b7e8:	f9400000 	ldr	x0, [x0]
ffff00000008b7ec:	f100001f 	cmp	x0, #0x0
ffff00000008b7f0:	54000061 	b.ne	ffff00000008b7fc <init_fcb+0x38>  // b.any
ffff00000008b7f4:	52800000 	mov	w0, #0x0                   	// #0
ffff00000008b7f8:	14000008 	b	ffff00000008b818 <init_fcb+0x54>
ffff00000008b7fc:	90000020 	adrp	x0, ffff00000008f000 <font_data+0xf68>
ffff00000008b800:	913f2000 	add	x0, x0, #0xfc8
ffff00000008b804:	f9400000 	ldr	x0, [x0]
ffff00000008b808:	52a00402 	mov	w2, #0x200000              	// #2097152
ffff00000008b80c:	52800001 	mov	w1, #0x0                   	// #0
ffff00000008b810:	97ffd23a 	bl	ffff0000000800f8 <memset>
ffff00000008b814:	52800020 	mov	w0, #0x1                   	// #1
ffff00000008b818:	a8c17bfd 	ldp	x29, x30, [sp], #16
ffff00000008b81c:	d65f03c0 	ret

ffff00000008b820 <init_file_desc>:
ffff00000008b820:	a9bf7bfd 	stp	x29, x30, [sp, #-16]!
ffff00000008b824:	910003fd 	mov	x29, sp
ffff00000008b828:	97fffa44 	bl	ffff00000008a138 <kalloc>
ffff00000008b82c:	aa0003e1 	mov	x1, x0
ffff00000008b830:	90000020 	adrp	x0, ffff00000008f000 <font_data+0xf68>
ffff00000008b834:	913f4000 	add	x0, x0, #0xfd0
ffff00000008b838:	f9000001 	str	x1, [x0]
ffff00000008b83c:	90000020 	adrp	x0, ffff00000008f000 <font_data+0xf68>
ffff00000008b840:	913f4000 	add	x0, x0, #0xfd0
ffff00000008b844:	f9400000 	ldr	x0, [x0]
ffff00000008b848:	f100001f 	cmp	x0, #0x0
ffff00000008b84c:	54000061 	b.ne	ffff00000008b858 <init_file_desc+0x38>  // b.any
ffff00000008b850:	52800000 	mov	w0, #0x0                   	// #0
ffff00000008b854:	14000008 	b	ffff00000008b874 <init_file_desc+0x54>
ffff00000008b858:	90000020 	adrp	x0, ffff00000008f000 <font_data+0xf68>
ffff00000008b85c:	913f4000 	add	x0, x0, #0xfd0
ffff00000008b860:	f9400000 	ldr	x0, [x0]
ffff00000008b864:	52a00402 	mov	w2, #0x200000              	// #2097152
ffff00000008b868:	52800001 	mov	w1, #0x0                   	// #0
ffff00000008b86c:	97ffd223 	bl	ffff0000000800f8 <memset>
ffff00000008b870:	52800020 	mov	w0, #0x1                   	// #1
ffff00000008b874:	a8c17bfd 	ldp	x29, x30, [sp], #16
ffff00000008b878:	d65f03c0 	ret

ffff00000008b87c <init_fs>:
ffff00000008b87c:	a9be7bfd 	stp	x29, x30, [sp, #-32]!
ffff00000008b880:	910003fd 	mov	x29, sp
ffff00000008b884:	97fffc9d 	bl	ffff00000008aaf8 <get_fs_bpb>
ffff00000008b888:	f9000fe0 	str	x0, [sp, #24]
ffff00000008b88c:	f9400fe0 	ldr	x0, [sp, #24]
ffff00000008b890:	9107f800 	add	x0, x0, #0x1fe
ffff00000008b894:	39400000 	ldrb	w0, [x0]
ffff00000008b898:	7101541f 	cmp	w0, #0x55
ffff00000008b89c:	540000c1 	b.ne	ffff00000008b8b4 <init_fs+0x38>  // b.any
ffff00000008b8a0:	f9400fe0 	ldr	x0, [sp, #24]
ffff00000008b8a4:	9107fc00 	add	x0, x0, #0x1ff
ffff00000008b8a8:	39400000 	ldrb	w0, [x0]
ffff00000008b8ac:	7102a81f 	cmp	w0, #0xaa
ffff00000008b8b0:	54000100 	b.eq	ffff00000008b8d0 <init_fs+0x54>  // b.none
ffff00000008b8b4:	f0000000 	adrp	x0, ffff00000008e000 <_fs_start+0x294>
ffff00000008b8b8:	9100c000 	add	x0, x0, #0x30
ffff00000008b8bc:	97ffd36b 	bl	ffff000000080668 <printk>
ffff00000008b8c0:	d2802ce1 	mov	x1, #0x167                 	// #359
ffff00000008b8c4:	f0000000 	adrp	x0, ffff00000008e000 <_fs_start+0x294>
ffff00000008b8c8:	91004000 	add	x0, x0, #0x10
ffff00000008b8cc:	97ffd524 	bl	ffff000000080d5c <error_check>
ffff00000008b8d0:	97ffffbd 	bl	ffff00000008b7c4 <init_fcb>
ffff00000008b8d4:	12001c00 	and	w0, w0, #0xff
ffff00000008b8d8:	52000000 	eor	w0, w0, #0x1
ffff00000008b8dc:	12001c00 	and	w0, w0, #0xff
ffff00000008b8e0:	12000000 	and	w0, w0, #0x1
ffff00000008b8e4:	7100001f 	cmp	w0, #0x0
ffff00000008b8e8:	540000a0 	b.eq	ffff00000008b8fc <init_fs+0x80>  // b.none
ffff00000008b8ec:	d2802d41 	mov	x1, #0x16a                 	// #362
ffff00000008b8f0:	f0000000 	adrp	x0, ffff00000008e000 <_fs_start+0x294>
ffff00000008b8f4:	91004000 	add	x0, x0, #0x10
ffff00000008b8f8:	97ffd519 	bl	ffff000000080d5c <error_check>
ffff00000008b8fc:	97ffffc9 	bl	ffff00000008b820 <init_file_desc>
ffff00000008b900:	12001c00 	and	w0, w0, #0xff
ffff00000008b904:	52000000 	eor	w0, w0, #0x1
ffff00000008b908:	12001c00 	and	w0, w0, #0xff
ffff00000008b90c:	12000000 	and	w0, w0, #0x1
ffff00000008b910:	7100001f 	cmp	w0, #0x0
ffff00000008b914:	540000a0 	b.eq	ffff00000008b928 <init_fs+0xac>  // b.none
ffff00000008b918:	d2802d61 	mov	x1, #0x16b                 	// #363
ffff00000008b91c:	f0000000 	adrp	x0, ffff00000008e000 <_fs_start+0x294>
ffff00000008b920:	91004000 	add	x0, x0, #0x10
ffff00000008b924:	97ffd50e 	bl	ffff000000080d5c <error_check>
ffff00000008b928:	d503201f 	nop
ffff00000008b92c:	a8c27bfd 	ldp	x29, x30, [sp], #32
ffff00000008b930:	d65f03c0 	ret

ffff00000008b934 <get_pc>:
ffff00000008b934:	f0000020 	adrp	x0, ffff000000092000 <process_table+0x2028>
ffff00000008b938:	91052000 	add	x0, x0, #0x148
ffff00000008b93c:	d65f03c0 	ret

ffff00000008b940 <find_unused_process>:
ffff00000008b940:	d10043ff 	sub	sp, sp, #0x10
ffff00000008b944:	f90007ff 	str	xzr, [sp, #8]
ffff00000008b948:	b90007ff 	str	wzr, [sp, #4]
ffff00000008b94c:	14000015 	b	ffff00000008b9a0 <find_unused_process+0x60>
ffff00000008b950:	90000020 	adrp	x0, ffff00000008f000 <font_data+0xf68>
ffff00000008b954:	913f6001 	add	x1, x0, #0xfd8
ffff00000008b958:	b98007e2 	ldrsw	x2, [sp, #4]
ffff00000008b95c:	d2806b00 	mov	x0, #0x358                 	// #856
ffff00000008b960:	9b007c40 	mul	x0, x2, x0
ffff00000008b964:	8b000020 	add	x0, x1, x0
ffff00000008b968:	b9400c00 	ldr	w0, [x0, #12]
ffff00000008b96c:	7100001f 	cmp	w0, #0x0
ffff00000008b970:	54000121 	b.ne	ffff00000008b994 <find_unused_process+0x54>  // b.any
ffff00000008b974:	b98007e1 	ldrsw	x1, [sp, #4]
ffff00000008b978:	d2806b00 	mov	x0, #0x358                 	// #856
ffff00000008b97c:	9b007c21 	mul	x1, x1, x0
ffff00000008b980:	90000020 	adrp	x0, ffff00000008f000 <font_data+0xf68>
ffff00000008b984:	913f6000 	add	x0, x0, #0xfd8
ffff00000008b988:	8b000020 	add	x0, x1, x0
ffff00000008b98c:	f90007e0 	str	x0, [sp, #8]
ffff00000008b990:	14000007 	b	ffff00000008b9ac <find_unused_process+0x6c>
ffff00000008b994:	b94007e0 	ldr	w0, [sp, #4]
ffff00000008b998:	11000400 	add	w0, w0, #0x1
ffff00000008b99c:	b90007e0 	str	w0, [sp, #4]
ffff00000008b9a0:	b94007e0 	ldr	w0, [sp, #4]
ffff00000008b9a4:	7100241f 	cmp	w0, #0x9
ffff00000008b9a8:	54fffd4d 	b.le	ffff00000008b950 <find_unused_process+0x10>
ffff00000008b9ac:	f94007e0 	ldr	x0, [sp, #8]
ffff00000008b9b0:	910043ff 	add	sp, sp, #0x10
ffff00000008b9b4:	d65f03c0 	ret

ffff00000008b9b8 <init_idle_process>:
ffff00000008b9b8:	a9be7bfd 	stp	x29, x30, [sp, #-32]!
ffff00000008b9bc:	910003fd 	mov	x29, sp
ffff00000008b9c0:	97ffffe0 	bl	ffff00000008b940 <find_unused_process>
ffff00000008b9c4:	f9000fe0 	str	x0, [sp, #24]
ffff00000008b9c8:	f9400fe1 	ldr	x1, [sp, #24]
ffff00000008b9cc:	90000020 	adrp	x0, ffff00000008f000 <font_data+0xf68>
ffff00000008b9d0:	913f6000 	add	x0, x0, #0xfd8
ffff00000008b9d4:	eb00003f 	cmp	x1, x0
ffff00000008b9d8:	540000a0 	b.eq	ffff00000008b9ec <init_idle_process+0x34>  // b.none
ffff00000008b9dc:	d28004c1 	mov	x1, #0x26                  	// #38
ffff00000008b9e0:	f0000000 	adrp	x0, ffff00000008e000 <_fs_start+0x294>
ffff00000008b9e4:	91012000 	add	x0, x0, #0x48
ffff00000008b9e8:	97ffd4dd 	bl	ffff000000080d5c <error_check>
ffff00000008b9ec:	f9400fe0 	ldr	x0, [sp, #24]
ffff00000008b9f0:	52800041 	mov	w1, #0x2                   	// #2
ffff00000008b9f4:	b9000c01 	str	w1, [x0, #12]
ffff00000008b9f8:	f9400fe0 	ldr	x0, [sp, #24]
ffff00000008b9fc:	b900081f 	str	wzr, [x0, #8]
ffff00000008ba00:	97ffd980 	bl	ffff000000082000 <read_pgd>
ffff00000008ba04:	aa0003e1 	mov	x1, x0
ffff00000008ba08:	d2ffffe0 	mov	x0, #0xffff000000000000    	// #-281474976710656
ffff00000008ba0c:	8b000021 	add	x1, x1, x0
ffff00000008ba10:	f9400fe0 	ldr	x0, [sp, #24]
ffff00000008ba14:	f9001001 	str	x1, [x0, #32]
ffff00000008ba18:	97ffffc7 	bl	ffff00000008b934 <get_pc>
ffff00000008ba1c:	f9000be0 	str	x0, [sp, #16]
ffff00000008ba20:	f9400be0 	ldr	x0, [sp, #16]
ffff00000008ba24:	f9400fe1 	ldr	x1, [sp, #24]
ffff00000008ba28:	f9000001 	str	x1, [x0]
ffff00000008ba2c:	d503201f 	nop
ffff00000008ba30:	a8c27bfd 	ldp	x29, x30, [sp], #32
ffff00000008ba34:	d65f03c0 	ret

ffff00000008ba38 <alloc_new_process>:
ffff00000008ba38:	a9be7bfd 	stp	x29, x30, [sp, #-32]!
ffff00000008ba3c:	910003fd 	mov	x29, sp
ffff00000008ba40:	97ffffc0 	bl	ffff00000008b940 <find_unused_process>
ffff00000008ba44:	f9000fe0 	str	x0, [sp, #24]
ffff00000008ba48:	f9400fe0 	ldr	x0, [sp, #24]
ffff00000008ba4c:	f100001f 	cmp	x0, #0x0
ffff00000008ba50:	54000061 	b.ne	ffff00000008ba5c <alloc_new_process+0x24>  // b.any
ffff00000008ba54:	d2800000 	mov	x0, #0x0                   	// #0
ffff00000008ba58:	14000051 	b	ffff00000008bb9c <alloc_new_process+0x164>
ffff00000008ba5c:	97fff9b7 	bl	ffff00000008a138 <kalloc>
ffff00000008ba60:	aa0003e1 	mov	x1, x0
ffff00000008ba64:	f9400fe0 	ldr	x0, [sp, #24]
ffff00000008ba68:	f9001401 	str	x1, [x0, #40]
ffff00000008ba6c:	f9400fe0 	ldr	x0, [sp, #24]
ffff00000008ba70:	f9401400 	ldr	x0, [x0, #40]
ffff00000008ba74:	f100001f 	cmp	x0, #0x0
ffff00000008ba78:	540000a1 	b.ne	ffff00000008ba8c <alloc_new_process+0x54>  // b.any
ffff00000008ba7c:	d2800761 	mov	x1, #0x3b                  	// #59
ffff00000008ba80:	f0000000 	adrp	x0, ffff00000008e000 <_fs_start+0x294>
ffff00000008ba84:	91012000 	add	x0, x0, #0x48
ffff00000008ba88:	97ffd4b5 	bl	ffff000000080d5c <error_check>
ffff00000008ba8c:	f9400fe0 	ldr	x0, [sp, #24]
ffff00000008ba90:	f9401400 	ldr	x0, [x0, #40]
ffff00000008ba94:	52a00402 	mov	w2, #0x200000              	// #2097152
ffff00000008ba98:	52800001 	mov	w1, #0x0                   	// #0
ffff00000008ba9c:	97ffd197 	bl	ffff0000000800f8 <memset>
ffff00000008baa0:	f9400fe0 	ldr	x0, [sp, #24]
ffff00000008baa4:	52800021 	mov	w1, #0x1                   	// #1
ffff00000008baa8:	b9000c01 	str	w1, [x0, #12]
ffff00000008baac:	90000020 	adrp	x0, ffff00000008f000 <font_data+0xf68>
ffff00000008bab0:	91358000 	add	x0, x0, #0xd60
ffff00000008bab4:	b9400000 	ldr	w0, [x0]
ffff00000008bab8:	11000402 	add	w2, w0, #0x1
ffff00000008babc:	90000021 	adrp	x1, ffff00000008f000 <font_data+0xf68>
ffff00000008bac0:	91358021 	add	x1, x1, #0xd60
ffff00000008bac4:	b9000022 	str	w2, [x1]
ffff00000008bac8:	f9400fe1 	ldr	x1, [sp, #24]
ffff00000008bacc:	b9000820 	str	w0, [x1, #8]
ffff00000008bad0:	f9400fe0 	ldr	x0, [sp, #24]
ffff00000008bad4:	f9401401 	ldr	x1, [x0, #40]
ffff00000008bad8:	d29fd000 	mov	x0, #0xfe80                	// #65152
ffff00000008badc:	f2a003e0 	movk	x0, #0x1f, lsl #16
ffff00000008bae0:	8b000021 	add	x1, x1, x0
ffff00000008bae4:	f9400fe0 	ldr	x0, [sp, #24]
ffff00000008bae8:	f9000c01 	str	x1, [x0, #24]
ffff00000008baec:	f9400fe0 	ldr	x0, [sp, #24]
ffff00000008baf0:	f9400c00 	ldr	x0, [x0, #24]
ffff00000008baf4:	91016000 	add	x0, x0, #0x58
ffff00000008baf8:	aa0003e1 	mov	x1, x0
ffff00000008bafc:	90000020 	adrp	x0, ffff00000008f000 <font_data+0xf68>
ffff00000008bb00:	f947c400 	ldr	x0, [x0, #3976]
ffff00000008bb04:	f9000020 	str	x0, [x1]
ffff00000008bb08:	f9400fe0 	ldr	x0, [sp, #24]
ffff00000008bb0c:	f9401401 	ldr	x1, [x0, #40]
ffff00000008bb10:	d29fdc00 	mov	x0, #0xfee0                	// #65248
ffff00000008bb14:	f2a003e0 	movk	x0, #0x1f, lsl #16
ffff00000008bb18:	8b000020 	add	x0, x1, x0
ffff00000008bb1c:	aa0003e1 	mov	x1, x0
ffff00000008bb20:	f9400fe0 	ldr	x0, [sp, #24]
ffff00000008bb24:	f901a801 	str	x1, [x0, #848]
ffff00000008bb28:	f9400fe0 	ldr	x0, [sp, #24]
ffff00000008bb2c:	f941a800 	ldr	x0, [x0, #848]
ffff00000008bb30:	d2a00801 	mov	x1, #0x400000              	// #4194304
ffff00000008bb34:	f9008801 	str	x1, [x0, #272]
ffff00000008bb38:	f9400fe0 	ldr	x0, [sp, #24]
ffff00000008bb3c:	f941a800 	ldr	x0, [x0, #848]
ffff00000008bb40:	d2a00c01 	mov	x1, #0x600000              	// #6291456
ffff00000008bb44:	f9007c01 	str	x1, [x0, #248]
ffff00000008bb48:	f9400fe0 	ldr	x0, [sp, #24]
ffff00000008bb4c:	f941a800 	ldr	x0, [x0, #848]
ffff00000008bb50:	f9008c1f 	str	xzr, [x0, #280]
ffff00000008bb54:	97fff979 	bl	ffff00000008a138 <kalloc>
ffff00000008bb58:	aa0003e1 	mov	x1, x0
ffff00000008bb5c:	f9400fe0 	ldr	x0, [sp, #24]
ffff00000008bb60:	f9001001 	str	x1, [x0, #32]
ffff00000008bb64:	f9400fe0 	ldr	x0, [sp, #24]
ffff00000008bb68:	f9401000 	ldr	x0, [x0, #32]
ffff00000008bb6c:	f100001f 	cmp	x0, #0x0
ffff00000008bb70:	540000a1 	b.ne	ffff00000008bb84 <alloc_new_process+0x14c>  // b.any
ffff00000008bb74:	d2800921 	mov	x1, #0x49                  	// #73
ffff00000008bb78:	f0000000 	adrp	x0, ffff00000008e000 <_fs_start+0x294>
ffff00000008bb7c:	91012000 	add	x0, x0, #0x48
ffff00000008bb80:	97ffd477 	bl	ffff000000080d5c <error_check>
ffff00000008bb84:	f9400fe0 	ldr	x0, [sp, #24]
ffff00000008bb88:	f9401000 	ldr	x0, [x0, #32]
ffff00000008bb8c:	52a00402 	mov	w2, #0x200000              	// #2097152
ffff00000008bb90:	52800001 	mov	w1, #0x0                   	// #0
ffff00000008bb94:	97ffd159 	bl	ffff0000000800f8 <memset>
ffff00000008bb98:	f9400fe0 	ldr	x0, [sp, #24]
ffff00000008bb9c:	a8c27bfd 	ldp	x29, x30, [sp], #32
ffff00000008bba0:	d65f03c0 	ret

ffff00000008bba4 <init_user_process>:
ffff00000008bba4:	a9bd7bfd 	stp	x29, x30, [sp, #-48]!
ffff00000008bba8:	910003fd 	mov	x29, sp
ffff00000008bbac:	97ffffa3 	bl	ffff00000008ba38 <alloc_new_process>
ffff00000008bbb0:	f90017e0 	str	x0, [sp, #40]
ffff00000008bbb4:	f94017e0 	ldr	x0, [sp, #40]
ffff00000008bbb8:	f100001f 	cmp	x0, #0x0
ffff00000008bbbc:	540000a1 	b.ne	ffff00000008bbd0 <init_user_process+0x2c>  // b.any
ffff00000008bbc0:	d2800ac1 	mov	x1, #0x56                  	// #86
ffff00000008bbc4:	f0000000 	adrp	x0, ffff00000008e000 <_fs_start+0x294>
ffff00000008bbc8:	91012000 	add	x0, x0, #0x48
ffff00000008bbcc:	97ffd464 	bl	ffff000000080d5c <error_check>
ffff00000008bbd0:	f0000000 	adrp	x0, ffff00000008e000 <_fs_start+0x294>
ffff00000008bbd4:	91018001 	add	x1, x0, #0x60
ffff00000008bbd8:	f94017e0 	ldr	x0, [sp, #40]
ffff00000008bbdc:	97fffb1f 	bl	ffff00000008a858 <setup_uvm>
ffff00000008bbe0:	12001c00 	and	w0, w0, #0xff
ffff00000008bbe4:	52000000 	eor	w0, w0, #0x1
ffff00000008bbe8:	12001c00 	and	w0, w0, #0xff
ffff00000008bbec:	12000000 	and	w0, w0, #0x1
ffff00000008bbf0:	7100001f 	cmp	w0, #0x0
ffff00000008bbf4:	540000a0 	b.eq	ffff00000008bc08 <init_user_process+0x64>  // b.none
ffff00000008bbf8:	d2800b01 	mov	x1, #0x58                  	// #88
ffff00000008bbfc:	f0000000 	adrp	x0, ffff00000008e000 <_fs_start+0x294>
ffff00000008bc00:	91012000 	add	x0, x0, #0x48
ffff00000008bc04:	97ffd456 	bl	ffff000000080d5c <error_check>
ffff00000008bc08:	97ffff4b 	bl	ffff00000008b934 <get_pc>
ffff00000008bc0c:	f90013e0 	str	x0, [sp, #32]
ffff00000008bc10:	f94013e0 	ldr	x0, [sp, #32]
ffff00000008bc14:	91002000 	add	x0, x0, #0x8
ffff00000008bc18:	f9000fe0 	str	x0, [sp, #24]
ffff00000008bc1c:	f94017e0 	ldr	x0, [sp, #40]
ffff00000008bc20:	52800061 	mov	w1, #0x3                   	// #3
ffff00000008bc24:	b9000c01 	str	w1, [x0, #12]
ffff00000008bc28:	f94017e1 	ldr	x1, [sp, #40]
ffff00000008bc2c:	f9400fe0 	ldr	x0, [sp, #24]
ffff00000008bc30:	9400029d 	bl	ffff00000008c6a4 <append_list_tail>
ffff00000008bc34:	d503201f 	nop
ffff00000008bc38:	a8c37bfd 	ldp	x29, x30, [sp], #48
ffff00000008bc3c:	d65f03c0 	ret

ffff00000008bc40 <init_process>:
ffff00000008bc40:	a9bf7bfd 	stp	x29, x30, [sp, #-16]!
ffff00000008bc44:	910003fd 	mov	x29, sp
ffff00000008bc48:	97ffff5c 	bl	ffff00000008b9b8 <init_idle_process>
ffff00000008bc4c:	97ffffd6 	bl	ffff00000008bba4 <init_user_process>
ffff00000008bc50:	d503201f 	nop
ffff00000008bc54:	a8c17bfd 	ldp	x29, x30, [sp], #16
ffff00000008bc58:	d65f03c0 	ret

ffff00000008bc5c <switch_process>:
ffff00000008bc5c:	a9be7bfd 	stp	x29, x30, [sp, #-32]!
ffff00000008bc60:	910003fd 	mov	x29, sp
ffff00000008bc64:	f9000fe0 	str	x0, [sp, #24]
ffff00000008bc68:	f9000be1 	str	x1, [sp, #16]
ffff00000008bc6c:	f9400be0 	ldr	x0, [sp, #16]
ffff00000008bc70:	f9401000 	ldr	x0, [x0, #32]
ffff00000008bc74:	97fffb8d 	bl	ffff00000008aaa8 <switch_vm>
ffff00000008bc78:	f9400fe0 	ldr	x0, [sp, #24]
ffff00000008bc7c:	91006002 	add	x2, x0, #0x18
ffff00000008bc80:	f9400be0 	ldr	x0, [sp, #16]
ffff00000008bc84:	f9400c00 	ldr	x0, [x0, #24]
ffff00000008bc88:	aa0003e1 	mov	x1, x0
ffff00000008bc8c:	aa0203e0 	mov	x0, x2
ffff00000008bc90:	97ffd73b 	bl	ffff00000008197c <swap>
ffff00000008bc94:	d503201f 	nop
ffff00000008bc98:	a8c27bfd 	ldp	x29, x30, [sp], #32
ffff00000008bc9c:	d65f03c0 	ret

ffff00000008bca0 <schedule>:
ffff00000008bca0:	a9bd7bfd 	stp	x29, x30, [sp, #-48]!
ffff00000008bca4:	910003fd 	mov	x29, sp
ffff00000008bca8:	97ffff23 	bl	ffff00000008b934 <get_pc>
ffff00000008bcac:	f90013e0 	str	x0, [sp, #32]
ffff00000008bcb0:	f94013e0 	ldr	x0, [sp, #32]
ffff00000008bcb4:	91002000 	add	x0, x0, #0x8
ffff00000008bcb8:	f9000fe0 	str	x0, [sp, #24]
ffff00000008bcbc:	f94013e0 	ldr	x0, [sp, #32]
ffff00000008bcc0:	f9400000 	ldr	x0, [x0]
ffff00000008bcc4:	f9000be0 	str	x0, [sp, #16]
ffff00000008bcc8:	f9400fe0 	ldr	x0, [sp, #24]
ffff00000008bccc:	940002ae 	bl	ffff00000008c784 <is_list_empty>
ffff00000008bcd0:	12001c00 	and	w0, w0, #0xff
ffff00000008bcd4:	12000000 	and	w0, w0, #0x1
ffff00000008bcd8:	7100001f 	cmp	w0, #0x0
ffff00000008bcdc:	540000a0 	b.eq	ffff00000008bcf0 <schedule+0x50>  // b.none
ffff00000008bce0:	90000020 	adrp	x0, ffff00000008f000 <font_data+0xf68>
ffff00000008bce4:	913f6000 	add	x0, x0, #0xfd8
ffff00000008bce8:	f90017e0 	str	x0, [sp, #40]
ffff00000008bcec:	14000004 	b	ffff00000008bcfc <schedule+0x5c>
ffff00000008bcf0:	f9400fe0 	ldr	x0, [sp, #24]
ffff00000008bcf4:	94000289 	bl	ffff00000008c718 <remove_list_head>
ffff00000008bcf8:	f90017e0 	str	x0, [sp, #40]
ffff00000008bcfc:	f94017e0 	ldr	x0, [sp, #40]
ffff00000008bd00:	52800041 	mov	w1, #0x2                   	// #2
ffff00000008bd04:	b9000c01 	str	w1, [x0, #12]
ffff00000008bd08:	f94013e0 	ldr	x0, [sp, #32]
ffff00000008bd0c:	f94017e1 	ldr	x1, [sp, #40]
ffff00000008bd10:	f9000001 	str	x1, [x0]
ffff00000008bd14:	f94017e1 	ldr	x1, [sp, #40]
ffff00000008bd18:	f9400be0 	ldr	x0, [sp, #16]
ffff00000008bd1c:	97ffffd0 	bl	ffff00000008bc5c <switch_process>
ffff00000008bd20:	d503201f 	nop
ffff00000008bd24:	a8c37bfd 	ldp	x29, x30, [sp], #48
ffff00000008bd28:	d65f03c0 	ret

ffff00000008bd2c <yield>:
ffff00000008bd2c:	a9bd7bfd 	stp	x29, x30, [sp, #-48]!
ffff00000008bd30:	910003fd 	mov	x29, sp
ffff00000008bd34:	97ffff00 	bl	ffff00000008b934 <get_pc>
ffff00000008bd38:	f90017e0 	str	x0, [sp, #40]
ffff00000008bd3c:	f94017e0 	ldr	x0, [sp, #40]
ffff00000008bd40:	91002000 	add	x0, x0, #0x8
ffff00000008bd44:	f90013e0 	str	x0, [sp, #32]
ffff00000008bd48:	f94013e0 	ldr	x0, [sp, #32]
ffff00000008bd4c:	9400028e 	bl	ffff00000008c784 <is_list_empty>
ffff00000008bd50:	12001c00 	and	w0, w0, #0xff
ffff00000008bd54:	12000000 	and	w0, w0, #0x1
ffff00000008bd58:	7100001f 	cmp	w0, #0x0
ffff00000008bd5c:	54000201 	b.ne	ffff00000008bd9c <yield+0x70>  // b.any
ffff00000008bd60:	f94017e0 	ldr	x0, [sp, #40]
ffff00000008bd64:	f9400000 	ldr	x0, [x0]
ffff00000008bd68:	f9000fe0 	str	x0, [sp, #24]
ffff00000008bd6c:	f9400fe0 	ldr	x0, [sp, #24]
ffff00000008bd70:	52800061 	mov	w1, #0x3                   	// #3
ffff00000008bd74:	b9000c01 	str	w1, [x0, #12]
ffff00000008bd78:	f9400fe0 	ldr	x0, [sp, #24]
ffff00000008bd7c:	b9400800 	ldr	w0, [x0, #8]
ffff00000008bd80:	7100001f 	cmp	w0, #0x0
ffff00000008bd84:	54000080 	b.eq	ffff00000008bd94 <yield+0x68>  // b.none
ffff00000008bd88:	f9400fe1 	ldr	x1, [sp, #24]
ffff00000008bd8c:	f94013e0 	ldr	x0, [sp, #32]
ffff00000008bd90:	94000245 	bl	ffff00000008c6a4 <append_list_tail>
ffff00000008bd94:	97ffffc3 	bl	ffff00000008bca0 <schedule>
ffff00000008bd98:	14000002 	b	ffff00000008bda0 <yield+0x74>
ffff00000008bd9c:	d503201f 	nop
ffff00000008bda0:	a8c37bfd 	ldp	x29, x30, [sp], #48
ffff00000008bda4:	d65f03c0 	ret

ffff00000008bda8 <sleep>:
ffff00000008bda8:	a9bd7bfd 	stp	x29, x30, [sp, #-48]!
ffff00000008bdac:	910003fd 	mov	x29, sp
ffff00000008bdb0:	b9001fe0 	str	w0, [sp, #28]
ffff00000008bdb4:	97fffee0 	bl	ffff00000008b934 <get_pc>
ffff00000008bdb8:	f90017e0 	str	x0, [sp, #40]
ffff00000008bdbc:	f94017e0 	ldr	x0, [sp, #40]
ffff00000008bdc0:	f9400000 	ldr	x0, [x0]
ffff00000008bdc4:	f90013e0 	str	x0, [sp, #32]
ffff00000008bdc8:	f94013e0 	ldr	x0, [sp, #32]
ffff00000008bdcc:	52800081 	mov	w1, #0x4                   	// #4
ffff00000008bdd0:	b9000c01 	str	w1, [x0, #12]
ffff00000008bdd4:	f94013e0 	ldr	x0, [sp, #32]
ffff00000008bdd8:	b9401fe1 	ldr	w1, [sp, #28]
ffff00000008bddc:	b9001001 	str	w1, [x0, #16]
ffff00000008bde0:	f94017e0 	ldr	x0, [sp, #40]
ffff00000008bde4:	91006000 	add	x0, x0, #0x18
ffff00000008bde8:	f94013e1 	ldr	x1, [sp, #32]
ffff00000008bdec:	9400022e 	bl	ffff00000008c6a4 <append_list_tail>
ffff00000008bdf0:	97ffffac 	bl	ffff00000008bca0 <schedule>
ffff00000008bdf4:	d503201f 	nop
ffff00000008bdf8:	a8c37bfd 	ldp	x29, x30, [sp], #48
ffff00000008bdfc:	d65f03c0 	ret

ffff00000008be00 <wake_up>:
ffff00000008be00:	a9bc7bfd 	stp	x29, x30, [sp, #-64]!
ffff00000008be04:	910003fd 	mov	x29, sp
ffff00000008be08:	b9001fe0 	str	w0, [sp, #28]
ffff00000008be0c:	97fffeca 	bl	ffff00000008b934 <get_pc>
ffff00000008be10:	f9001be0 	str	x0, [sp, #48]
ffff00000008be14:	f9401be0 	ldr	x0, [sp, #48]
ffff00000008be18:	91002000 	add	x0, x0, #0x8
ffff00000008be1c:	f90017e0 	str	x0, [sp, #40]
ffff00000008be20:	f9401be0 	ldr	x0, [sp, #48]
ffff00000008be24:	91006000 	add	x0, x0, #0x18
ffff00000008be28:	f90013e0 	str	x0, [sp, #32]
ffff00000008be2c:	b9401fe1 	ldr	w1, [sp, #28]
ffff00000008be30:	f94013e0 	ldr	x0, [sp, #32]
ffff00000008be34:	9400025d 	bl	ffff00000008c7a8 <remove_list>
ffff00000008be38:	f9001fe0 	str	x0, [sp, #56]
ffff00000008be3c:	1400000b 	b	ffff00000008be68 <wake_up+0x68>
ffff00000008be40:	f9401fe0 	ldr	x0, [sp, #56]
ffff00000008be44:	52800061 	mov	w1, #0x3                   	// #3
ffff00000008be48:	b9000c01 	str	w1, [x0, #12]
ffff00000008be4c:	f9401fe1 	ldr	x1, [sp, #56]
ffff00000008be50:	f94017e0 	ldr	x0, [sp, #40]
ffff00000008be54:	94000214 	bl	ffff00000008c6a4 <append_list_tail>
ffff00000008be58:	b9401fe1 	ldr	w1, [sp, #28]
ffff00000008be5c:	f94013e0 	ldr	x0, [sp, #32]
ffff00000008be60:	94000252 	bl	ffff00000008c7a8 <remove_list>
ffff00000008be64:	f9001fe0 	str	x0, [sp, #56]
ffff00000008be68:	f9401fe0 	ldr	x0, [sp, #56]
ffff00000008be6c:	f100001f 	cmp	x0, #0x0
ffff00000008be70:	54fffe81 	b.ne	ffff00000008be40 <wake_up+0x40>  // b.any
ffff00000008be74:	d503201f 	nop
ffff00000008be78:	d503201f 	nop
ffff00000008be7c:	a8c47bfd 	ldp	x29, x30, [sp], #64
ffff00000008be80:	d65f03c0 	ret

ffff00000008be84 <exit>:
ffff00000008be84:	a9be7bfd 	stp	x29, x30, [sp, #-32]!
ffff00000008be88:	910003fd 	mov	x29, sp
ffff00000008be8c:	97fffeaa 	bl	ffff00000008b934 <get_pc>
ffff00000008be90:	f9000fe0 	str	x0, [sp, #24]
ffff00000008be94:	f9400fe0 	ldr	x0, [sp, #24]
ffff00000008be98:	f9400000 	ldr	x0, [x0]
ffff00000008be9c:	f9000be0 	str	x0, [sp, #16]
ffff00000008bea0:	f9400be0 	ldr	x0, [sp, #16]
ffff00000008bea4:	528000a1 	mov	w1, #0x5                   	// #5
ffff00000008bea8:	b9000c01 	str	w1, [x0, #12]
ffff00000008beac:	f9400be0 	ldr	x0, [sp, #16]
ffff00000008beb0:	b9400801 	ldr	w1, [x0, #8]
ffff00000008beb4:	f9400be0 	ldr	x0, [sp, #16]
ffff00000008beb8:	b9001001 	str	w1, [x0, #16]
ffff00000008bebc:	f9400fe0 	ldr	x0, [sp, #24]
ffff00000008bec0:	9100a000 	add	x0, x0, #0x28
ffff00000008bec4:	f9400be1 	ldr	x1, [sp, #16]
ffff00000008bec8:	940001f7 	bl	ffff00000008c6a4 <append_list_tail>
ffff00000008becc:	12800040 	mov	w0, #0xfffffffd            	// #-3
ffff00000008bed0:	97ffffcc 	bl	ffff00000008be00 <wake_up>
ffff00000008bed4:	97ffff73 	bl	ffff00000008bca0 <schedule>
ffff00000008bed8:	d503201f 	nop
ffff00000008bedc:	a8c27bfd 	ldp	x29, x30, [sp], #32
ffff00000008bee0:	d65f03c0 	ret

ffff00000008bee4 <wait>:
ffff00000008bee4:	a9bc7bfd 	stp	x29, x30, [sp, #-64]!
ffff00000008bee8:	910003fd 	mov	x29, sp
ffff00000008beec:	b9001fe0 	str	w0, [sp, #28]
ffff00000008bef0:	97fffe91 	bl	ffff00000008b934 <get_pc>
ffff00000008bef4:	f9001be0 	str	x0, [sp, #48]
ffff00000008bef8:	f9401be0 	ldr	x0, [sp, #48]
ffff00000008befc:	9100a000 	add	x0, x0, #0x28
ffff00000008bf00:	f90017e0 	str	x0, [sp, #40]
ffff00000008bf04:	f94017e0 	ldr	x0, [sp, #40]
ffff00000008bf08:	9400021f 	bl	ffff00000008c784 <is_list_empty>
ffff00000008bf0c:	12001c00 	and	w0, w0, #0xff
ffff00000008bf10:	52000000 	eor	w0, w0, #0x1
ffff00000008bf14:	12001c00 	and	w0, w0, #0xff
ffff00000008bf18:	12000000 	and	w0, w0, #0x1
ffff00000008bf1c:	7100001f 	cmp	w0, #0x0
ffff00000008bf20:	54000880 	b.eq	ffff00000008c030 <wait+0x14c>  // b.none
ffff00000008bf24:	b9401fe1 	ldr	w1, [sp, #28]
ffff00000008bf28:	f94017e0 	ldr	x0, [sp, #40]
ffff00000008bf2c:	9400021f 	bl	ffff00000008c7a8 <remove_list>
ffff00000008bf30:	f90013e0 	str	x0, [sp, #32]
ffff00000008bf34:	f94013e0 	ldr	x0, [sp, #32]
ffff00000008bf38:	f100001f 	cmp	x0, #0x0
ffff00000008bf3c:	540007a0 	b.eq	ffff00000008c030 <wait+0x14c>  // b.none
ffff00000008bf40:	f94013e0 	ldr	x0, [sp, #32]
ffff00000008bf44:	b9400c00 	ldr	w0, [x0, #12]
ffff00000008bf48:	7100141f 	cmp	w0, #0x5
ffff00000008bf4c:	540000a0 	b.eq	ffff00000008bf60 <wait+0x7c>  // b.none
ffff00000008bf50:	d2801c61 	mov	x1, #0xe3                  	// #227
ffff00000008bf54:	f0000000 	adrp	x0, ffff00000008e000 <_fs_start+0x294>
ffff00000008bf58:	91012000 	add	x0, x0, #0x48
ffff00000008bf5c:	97ffd380 	bl	ffff000000080d5c <error_check>
ffff00000008bf60:	f94013e0 	ldr	x0, [sp, #32]
ffff00000008bf64:	f9401400 	ldr	x0, [x0, #40]
ffff00000008bf68:	97fff848 	bl	ffff00000008a088 <kfree>
ffff00000008bf6c:	f94013e0 	ldr	x0, [sp, #32]
ffff00000008bf70:	f9401000 	ldr	x0, [x0, #32]
ffff00000008bf74:	97fffa2a 	bl	ffff00000008a81c <free_vm>
ffff00000008bf78:	b9003fff 	str	wzr, [sp, #60]
ffff00000008bf7c:	14000025 	b	ffff00000008c010 <wait+0x12c>
ffff00000008bf80:	f94013e0 	ldr	x0, [sp, #32]
ffff00000008bf84:	b9803fe1 	ldrsw	x1, [sp, #60]
ffff00000008bf88:	91001821 	add	x1, x1, #0x6
ffff00000008bf8c:	f8617800 	ldr	x0, [x0, x1, lsl #3]
ffff00000008bf90:	f100001f 	cmp	x0, #0x0
ffff00000008bf94:	54000380 	b.eq	ffff00000008c004 <wait+0x120>  // b.none
ffff00000008bf98:	f94013e0 	ldr	x0, [sp, #32]
ffff00000008bf9c:	b9803fe1 	ldrsw	x1, [sp, #60]
ffff00000008bfa0:	91001821 	add	x1, x1, #0x6
ffff00000008bfa4:	f8617800 	ldr	x0, [x0, x1, lsl #3]
ffff00000008bfa8:	f9400000 	ldr	x0, [x0]
ffff00000008bfac:	b9401801 	ldr	w1, [x0, #24]
ffff00000008bfb0:	51000421 	sub	w1, w1, #0x1
ffff00000008bfb4:	b9001801 	str	w1, [x0, #24]
ffff00000008bfb8:	f94013e0 	ldr	x0, [sp, #32]
ffff00000008bfbc:	b9803fe1 	ldrsw	x1, [sp, #60]
ffff00000008bfc0:	91001821 	add	x1, x1, #0x6
ffff00000008bfc4:	f8617800 	ldr	x0, [x0, x1, lsl #3]
ffff00000008bfc8:	b9400c01 	ldr	w1, [x0, #12]
ffff00000008bfcc:	51000421 	sub	w1, w1, #0x1
ffff00000008bfd0:	b9000c01 	str	w1, [x0, #12]
ffff00000008bfd4:	f94013e0 	ldr	x0, [sp, #32]
ffff00000008bfd8:	b9803fe1 	ldrsw	x1, [sp, #60]
ffff00000008bfdc:	91001821 	add	x1, x1, #0x6
ffff00000008bfe0:	f8617800 	ldr	x0, [x0, x1, lsl #3]
ffff00000008bfe4:	b9400c00 	ldr	w0, [x0, #12]
ffff00000008bfe8:	7100001f 	cmp	w0, #0x0
ffff00000008bfec:	540000c1 	b.ne	ffff00000008c004 <wait+0x120>  // b.any
ffff00000008bff0:	f94013e0 	ldr	x0, [sp, #32]
ffff00000008bff4:	b9803fe1 	ldrsw	x1, [sp, #60]
ffff00000008bff8:	91001821 	add	x1, x1, #0x6
ffff00000008bffc:	f8617800 	ldr	x0, [x0, x1, lsl #3]
ffff00000008c000:	f900001f 	str	xzr, [x0]
ffff00000008c004:	b9403fe0 	ldr	w0, [sp, #60]
ffff00000008c008:	11000400 	add	w0, w0, #0x1
ffff00000008c00c:	b9003fe0 	str	w0, [sp, #60]
ffff00000008c010:	b9403fe0 	ldr	w0, [sp, #60]
ffff00000008c014:	71018c1f 	cmp	w0, #0x63
ffff00000008c018:	54fffb4d 	b.le	ffff00000008bf80 <wait+0x9c>
ffff00000008c01c:	52806b02 	mov	w2, #0x358                 	// #856
ffff00000008c020:	52800001 	mov	w1, #0x0                   	// #0
ffff00000008c024:	f94013e0 	ldr	x0, [sp, #32]
ffff00000008c028:	97ffd034 	bl	ffff0000000800f8 <memset>
ffff00000008c02c:	14000004 	b	ffff00000008c03c <wait+0x158>
ffff00000008c030:	12800040 	mov	w0, #0xfffffffd            	// #-3
ffff00000008c034:	97ffff5d 	bl	ffff00000008bda8 <sleep>
ffff00000008c038:	17ffffb3 	b	ffff00000008bf04 <wait+0x20>
ffff00000008c03c:	d503201f 	nop
ffff00000008c040:	a8c47bfd 	ldp	x29, x30, [sp], #64
ffff00000008c044:	d65f03c0 	ret

ffff00000008c048 <fork>:
ffff00000008c048:	a9bc7bfd 	stp	x29, x30, [sp, #-64]!
ffff00000008c04c:	910003fd 	mov	x29, sp
ffff00000008c050:	97fffe39 	bl	ffff00000008b934 <get_pc>
ffff00000008c054:	f9001be0 	str	x0, [sp, #48]
ffff00000008c058:	f9401be0 	ldr	x0, [sp, #48]
ffff00000008c05c:	f9400000 	ldr	x0, [x0]
ffff00000008c060:	f90017e0 	str	x0, [sp, #40]
ffff00000008c064:	f9401be0 	ldr	x0, [sp, #48]
ffff00000008c068:	91002000 	add	x0, x0, #0x8
ffff00000008c06c:	f90013e0 	str	x0, [sp, #32]
ffff00000008c070:	97fffe72 	bl	ffff00000008ba38 <alloc_new_process>
ffff00000008c074:	f9000fe0 	str	x0, [sp, #24]
ffff00000008c078:	f9400fe0 	ldr	x0, [sp, #24]
ffff00000008c07c:	f100001f 	cmp	x0, #0x0
ffff00000008c080:	540000e1 	b.ne	ffff00000008c09c <fork+0x54>  // b.any
ffff00000008c084:	d2802181 	mov	x1, #0x10c                 	// #268
ffff00000008c088:	d0000000 	adrp	x0, ffff00000008e000 <_fs_start+0x294>
ffff00000008c08c:	91012000 	add	x0, x0, #0x48
ffff00000008c090:	97ffd333 	bl	ffff000000080d5c <error_check>
ffff00000008c094:	12800000 	mov	w0, #0xffffffff            	// #-1
ffff00000008c098:	1400004d 	b	ffff00000008c1cc <fork+0x184>
ffff00000008c09c:	f9400fe0 	ldr	x0, [sp, #24]
ffff00000008c0a0:	f9401003 	ldr	x3, [x0, #32]
ffff00000008c0a4:	f94017e0 	ldr	x0, [sp, #40]
ffff00000008c0a8:	f9401000 	ldr	x0, [x0, #32]
ffff00000008c0ac:	52a00402 	mov	w2, #0x200000              	// #2097152
ffff00000008c0b0:	aa0003e1 	mov	x1, x0
ffff00000008c0b4:	aa0303e0 	mov	x0, x3
ffff00000008c0b8:	97fffa2d 	bl	ffff00000008a96c <copy_uvm>
ffff00000008c0bc:	12001c00 	and	w0, w0, #0xff
ffff00000008c0c0:	52000000 	eor	w0, w0, #0x1
ffff00000008c0c4:	12001c00 	and	w0, w0, #0xff
ffff00000008c0c8:	12000000 	and	w0, w0, #0x1
ffff00000008c0cc:	7100001f 	cmp	w0, #0x0
ffff00000008c0d0:	540000e0 	b.eq	ffff00000008c0ec <fork+0xa4>  // b.none
ffff00000008c0d4:	d2802241 	mov	x1, #0x112                 	// #274
ffff00000008c0d8:	d0000000 	adrp	x0, ffff00000008e000 <_fs_start+0x294>
ffff00000008c0dc:	91012000 	add	x0, x0, #0x48
ffff00000008c0e0:	97ffd31f 	bl	ffff000000080d5c <error_check>
ffff00000008c0e4:	12800000 	mov	w0, #0xffffffff            	// #-1
ffff00000008c0e8:	14000039 	b	ffff00000008c1cc <fork+0x184>
ffff00000008c0ec:	f9400fe0 	ldr	x0, [sp, #24]
ffff00000008c0f0:	9100c003 	add	x3, x0, #0x30
ffff00000008c0f4:	f94017e0 	ldr	x0, [sp, #40]
ffff00000008c0f8:	9100c000 	add	x0, x0, #0x30
ffff00000008c0fc:	52806402 	mov	w2, #0x320                 	// #800
ffff00000008c100:	aa0003e1 	mov	x1, x0
ffff00000008c104:	aa0303e0 	mov	x0, x3
ffff00000008c108:	97ffd00d 	bl	ffff00000008013c <memcpy>
ffff00000008c10c:	b9003fff 	str	wzr, [sp, #60]
ffff00000008c110:	14000019 	b	ffff00000008c174 <fork+0x12c>
ffff00000008c114:	f9400fe0 	ldr	x0, [sp, #24]
ffff00000008c118:	b9803fe1 	ldrsw	x1, [sp, #60]
ffff00000008c11c:	91001821 	add	x1, x1, #0x6
ffff00000008c120:	f8617800 	ldr	x0, [x0, x1, lsl #3]
ffff00000008c124:	f100001f 	cmp	x0, #0x0
ffff00000008c128:	54000200 	b.eq	ffff00000008c168 <fork+0x120>  // b.none
ffff00000008c12c:	f9400fe0 	ldr	x0, [sp, #24]
ffff00000008c130:	b9803fe1 	ldrsw	x1, [sp, #60]
ffff00000008c134:	91001821 	add	x1, x1, #0x6
ffff00000008c138:	f8617800 	ldr	x0, [x0, x1, lsl #3]
ffff00000008c13c:	b9400c01 	ldr	w1, [x0, #12]
ffff00000008c140:	11000421 	add	w1, w1, #0x1
ffff00000008c144:	b9000c01 	str	w1, [x0, #12]
ffff00000008c148:	f9400fe0 	ldr	x0, [sp, #24]
ffff00000008c14c:	b9803fe1 	ldrsw	x1, [sp, #60]
ffff00000008c150:	91001821 	add	x1, x1, #0x6
ffff00000008c154:	f8617800 	ldr	x0, [x0, x1, lsl #3]
ffff00000008c158:	f9400000 	ldr	x0, [x0]
ffff00000008c15c:	b9401801 	ldr	w1, [x0, #24]
ffff00000008c160:	11000421 	add	w1, w1, #0x1
ffff00000008c164:	b9001801 	str	w1, [x0, #24]
ffff00000008c168:	b9403fe0 	ldr	w0, [sp, #60]
ffff00000008c16c:	11000400 	add	w0, w0, #0x1
ffff00000008c170:	b9003fe0 	str	w0, [sp, #60]
ffff00000008c174:	b9403fe0 	ldr	w0, [sp, #60]
ffff00000008c178:	71018c1f 	cmp	w0, #0x63
ffff00000008c17c:	54fffccd 	b.le	ffff00000008c114 <fork+0xcc>
ffff00000008c180:	f9400fe0 	ldr	x0, [sp, #24]
ffff00000008c184:	f941a803 	ldr	x3, [x0, #848]
ffff00000008c188:	f94017e0 	ldr	x0, [sp, #40]
ffff00000008c18c:	f941a800 	ldr	x0, [x0, #848]
ffff00000008c190:	52802402 	mov	w2, #0x120                 	// #288
ffff00000008c194:	aa0003e1 	mov	x1, x0
ffff00000008c198:	aa0303e0 	mov	x0, x3
ffff00000008c19c:	97ffcfe8 	bl	ffff00000008013c <memcpy>
ffff00000008c1a0:	f9400fe0 	ldr	x0, [sp, #24]
ffff00000008c1a4:	f941a800 	ldr	x0, [x0, #848]
ffff00000008c1a8:	f900001f 	str	xzr, [x0]
ffff00000008c1ac:	f9400fe0 	ldr	x0, [sp, #24]
ffff00000008c1b0:	52800061 	mov	w1, #0x3                   	// #3
ffff00000008c1b4:	b9000c01 	str	w1, [x0, #12]
ffff00000008c1b8:	f9400fe1 	ldr	x1, [sp, #24]
ffff00000008c1bc:	f94013e0 	ldr	x0, [sp, #32]
ffff00000008c1c0:	94000139 	bl	ffff00000008c6a4 <append_list_tail>
ffff00000008c1c4:	f9400fe0 	ldr	x0, [sp, #24]
ffff00000008c1c8:	b9400800 	ldr	w0, [x0, #8]
ffff00000008c1cc:	a8c47bfd 	ldp	x29, x30, [sp], #64
ffff00000008c1d0:	d65f03c0 	ret

ffff00000008c1d4 <exec>:
ffff00000008c1d4:	a9bd7bfd 	stp	x29, x30, [sp, #-48]!
ffff00000008c1d8:	910003fd 	mov	x29, sp
ffff00000008c1dc:	f9000fe0 	str	x0, [sp, #24]
ffff00000008c1e0:	f9000be1 	str	x1, [sp, #16]
ffff00000008c1e4:	f9400be1 	ldr	x1, [sp, #16]
ffff00000008c1e8:	f9400fe0 	ldr	x0, [sp, #24]
ffff00000008c1ec:	97fffcbd 	bl	ffff00000008b4e0 <open_file>
ffff00000008c1f0:	b9002fe0 	str	w0, [sp, #44]
ffff00000008c1f4:	b9402fe0 	ldr	w0, [sp, #44]
ffff00000008c1f8:	3100041f 	cmn	w0, #0x1
ffff00000008c1fc:	54000041 	b.ne	ffff00000008c204 <exec+0x30>  // b.any
ffff00000008c200:	97ffff21 	bl	ffff00000008be84 <exit>
ffff00000008c204:	52a00402 	mov	w2, #0x200000              	// #2097152
ffff00000008c208:	52800001 	mov	w1, #0x0                   	// #0
ffff00000008c20c:	d2a00800 	mov	x0, #0x400000              	// #4194304
ffff00000008c210:	97ffcfba 	bl	ffff0000000800f8 <memset>
ffff00000008c214:	b9402fe1 	ldr	w1, [sp, #44]
ffff00000008c218:	f9400fe0 	ldr	x0, [sp, #24]
ffff00000008c21c:	97fffca6 	bl	ffff00000008b4b4 <get_file_size>
ffff00000008c220:	b9002be0 	str	w0, [sp, #40]
ffff00000008c224:	b9402be3 	ldr	w3, [sp, #40]
ffff00000008c228:	d2a00802 	mov	x2, #0x400000              	// #4194304
ffff00000008c22c:	b9402fe1 	ldr	w1, [sp, #44]
ffff00000008c230:	f9400fe0 	ldr	x0, [sp, #24]
ffff00000008c234:	97fffbfc 	bl	ffff00000008b224 <read_file>
ffff00000008c238:	b9002be0 	str	w0, [sp, #40]
ffff00000008c23c:	b9402be0 	ldr	w0, [sp, #40]
ffff00000008c240:	3100041f 	cmn	w0, #0x1
ffff00000008c244:	54000041 	b.ne	ffff00000008c24c <exec+0x78>  // b.any
ffff00000008c248:	97ffff0f 	bl	ffff00000008be84 <exit>
ffff00000008c24c:	b9402fe1 	ldr	w1, [sp, #44]
ffff00000008c250:	f9400fe0 	ldr	x0, [sp, #24]
ffff00000008c254:	97fffd28 	bl	ffff00000008b6f4 <close_file>
ffff00000008c258:	f9400fe0 	ldr	x0, [sp, #24]
ffff00000008c25c:	f941a800 	ldr	x0, [x0, #848]
ffff00000008c260:	52802402 	mov	w2, #0x120                 	// #288
ffff00000008c264:	52800001 	mov	w1, #0x0                   	// #0
ffff00000008c268:	97ffcfa4 	bl	ffff0000000800f8 <memset>
ffff00000008c26c:	f9400fe0 	ldr	x0, [sp, #24]
ffff00000008c270:	f941a800 	ldr	x0, [x0, #848]
ffff00000008c274:	d2a00801 	mov	x1, #0x400000              	// #4194304
ffff00000008c278:	f9008801 	str	x1, [x0, #272]
ffff00000008c27c:	f9400fe0 	ldr	x0, [sp, #24]
ffff00000008c280:	f941a800 	ldr	x0, [x0, #848]
ffff00000008c284:	d2a00c01 	mov	x1, #0x600000              	// #6291456
ffff00000008c288:	f9007c01 	str	x1, [x0, #248]
ffff00000008c28c:	f9400fe0 	ldr	x0, [sp, #24]
ffff00000008c290:	f941a800 	ldr	x0, [x0, #848]
ffff00000008c294:	f9008c1f 	str	xzr, [x0, #280]
ffff00000008c298:	52800000 	mov	w0, #0x0                   	// #0
ffff00000008c29c:	a8c37bfd 	ldp	x29, x30, [sp], #48
ffff00000008c2a0:	d65f03c0 	ret

ffff00000008c2a4 <sys_write>:
ffff00000008c2a4:	a9be7bfd 	stp	x29, x30, [sp, #-32]!
ffff00000008c2a8:	910003fd 	mov	x29, sp
ffff00000008c2ac:	f9000fe0 	str	x0, [sp, #24]
ffff00000008c2b0:	f9400fe0 	ldr	x0, [sp, #24]
ffff00000008c2b4:	f9400000 	ldr	x0, [x0]
ffff00000008c2b8:	aa0003e2 	mov	x2, x0
ffff00000008c2bc:	f9400fe0 	ldr	x0, [sp, #24]
ffff00000008c2c0:	91002000 	add	x0, x0, #0x8
ffff00000008c2c4:	f9400000 	ldr	x0, [x0]
ffff00000008c2c8:	2a0003e1 	mov	w1, w0
ffff00000008c2cc:	aa0203e0 	mov	x0, x2
ffff00000008c2d0:	97ffd0d0 	bl	ffff000000080610 <write_console>
ffff00000008c2d4:	f9400fe0 	ldr	x0, [sp, #24]
ffff00000008c2d8:	91002000 	add	x0, x0, #0x8
ffff00000008c2dc:	f9400000 	ldr	x0, [x0]
ffff00000008c2e0:	a8c27bfd 	ldp	x29, x30, [sp], #32
ffff00000008c2e4:	d65f03c0 	ret

ffff00000008c2e8 <sys_sleep>:
ffff00000008c2e8:	a9bc7bfd 	stp	x29, x30, [sp, #-64]!
ffff00000008c2ec:	910003fd 	mov	x29, sp
ffff00000008c2f0:	f9000fe0 	str	x0, [sp, #24]
ffff00000008c2f4:	f9400fe0 	ldr	x0, [sp, #24]
ffff00000008c2f8:	f9400000 	ldr	x0, [x0]
ffff00000008c2fc:	f9001be0 	str	x0, [sp, #48]
ffff00000008c300:	97ffd5ff 	bl	ffff000000081afc <get_ticks>
ffff00000008c304:	f9001fe0 	str	x0, [sp, #56]
ffff00000008c308:	f9401fe0 	ldr	x0, [sp, #56]
ffff00000008c30c:	f90017e0 	str	x0, [sp, #40]
ffff00000008c310:	14000005 	b	ffff00000008c324 <sys_sleep+0x3c>
ffff00000008c314:	12800000 	mov	w0, #0xffffffff            	// #-1
ffff00000008c318:	97fffea4 	bl	ffff00000008bda8 <sleep>
ffff00000008c31c:	97ffd5f8 	bl	ffff000000081afc <get_ticks>
ffff00000008c320:	f9001fe0 	str	x0, [sp, #56]
ffff00000008c324:	f9401fe1 	ldr	x1, [sp, #56]
ffff00000008c328:	f94017e0 	ldr	x0, [sp, #40]
ffff00000008c32c:	cb000020 	sub	x0, x1, x0
ffff00000008c330:	f9401be1 	ldr	x1, [sp, #48]
ffff00000008c334:	eb00003f 	cmp	x1, x0
ffff00000008c338:	54fffee8 	b.hi	ffff00000008c314 <sys_sleep+0x2c>  // b.pmore
ffff00000008c33c:	52800000 	mov	w0, #0x0                   	// #0
ffff00000008c340:	a8c47bfd 	ldp	x29, x30, [sp], #64
ffff00000008c344:	d65f03c0 	ret

ffff00000008c348 <sys_exit>:
ffff00000008c348:	a9be7bfd 	stp	x29, x30, [sp, #-32]!
ffff00000008c34c:	910003fd 	mov	x29, sp
ffff00000008c350:	f9000fe0 	str	x0, [sp, #24]
ffff00000008c354:	97fffecc 	bl	ffff00000008be84 <exit>
ffff00000008c358:	52800000 	mov	w0, #0x0                   	// #0
ffff00000008c35c:	a8c27bfd 	ldp	x29, x30, [sp], #32
ffff00000008c360:	d65f03c0 	ret

ffff00000008c364 <sys_wait>:
ffff00000008c364:	a9be7bfd 	stp	x29, x30, [sp, #-32]!
ffff00000008c368:	910003fd 	mov	x29, sp
ffff00000008c36c:	f9000fe0 	str	x0, [sp, #24]
ffff00000008c370:	f9400fe0 	ldr	x0, [sp, #24]
ffff00000008c374:	f9400000 	ldr	x0, [x0]
ffff00000008c378:	97fffedb 	bl	ffff00000008bee4 <wait>
ffff00000008c37c:	52800000 	mov	w0, #0x0                   	// #0
ffff00000008c380:	a8c27bfd 	ldp	x29, x30, [sp], #32
ffff00000008c384:	d65f03c0 	ret

ffff00000008c388 <sys_open_file>:
ffff00000008c388:	a9bd7bfd 	stp	x29, x30, [sp, #-48]!
ffff00000008c38c:	910003fd 	mov	x29, sp
ffff00000008c390:	f9000fe0 	str	x0, [sp, #24]
ffff00000008c394:	97fffd68 	bl	ffff00000008b934 <get_pc>
ffff00000008c398:	f90017e0 	str	x0, [sp, #40]
ffff00000008c39c:	f94017e0 	ldr	x0, [sp, #40]
ffff00000008c3a0:	f9400002 	ldr	x2, [x0]
ffff00000008c3a4:	f9400fe0 	ldr	x0, [sp, #24]
ffff00000008c3a8:	f9400000 	ldr	x0, [x0]
ffff00000008c3ac:	aa0003e1 	mov	x1, x0
ffff00000008c3b0:	aa0203e0 	mov	x0, x2
ffff00000008c3b4:	97fffc4b 	bl	ffff00000008b4e0 <open_file>
ffff00000008c3b8:	a8c37bfd 	ldp	x29, x30, [sp], #48
ffff00000008c3bc:	d65f03c0 	ret

ffff00000008c3c0 <sys_close_file>:
ffff00000008c3c0:	a9bd7bfd 	stp	x29, x30, [sp, #-48]!
ffff00000008c3c4:	910003fd 	mov	x29, sp
ffff00000008c3c8:	f9000fe0 	str	x0, [sp, #24]
ffff00000008c3cc:	97fffd5a 	bl	ffff00000008b934 <get_pc>
ffff00000008c3d0:	f90017e0 	str	x0, [sp, #40]
ffff00000008c3d4:	f94017e0 	ldr	x0, [sp, #40]
ffff00000008c3d8:	f9400002 	ldr	x2, [x0]
ffff00000008c3dc:	f9400fe0 	ldr	x0, [sp, #24]
ffff00000008c3e0:	f9400000 	ldr	x0, [x0]
ffff00000008c3e4:	2a0003e1 	mov	w1, w0
ffff00000008c3e8:	aa0203e0 	mov	x0, x2
ffff00000008c3ec:	97fffcc2 	bl	ffff00000008b6f4 <close_file>
ffff00000008c3f0:	52800000 	mov	w0, #0x0                   	// #0
ffff00000008c3f4:	a8c37bfd 	ldp	x29, x30, [sp], #48
ffff00000008c3f8:	d65f03c0 	ret

ffff00000008c3fc <sys_get_file_size>:
ffff00000008c3fc:	a9bd7bfd 	stp	x29, x30, [sp, #-48]!
ffff00000008c400:	910003fd 	mov	x29, sp
ffff00000008c404:	f9000fe0 	str	x0, [sp, #24]
ffff00000008c408:	97fffd4b 	bl	ffff00000008b934 <get_pc>
ffff00000008c40c:	f90017e0 	str	x0, [sp, #40]
ffff00000008c410:	f94017e0 	ldr	x0, [sp, #40]
ffff00000008c414:	f9400002 	ldr	x2, [x0]
ffff00000008c418:	f9400fe0 	ldr	x0, [sp, #24]
ffff00000008c41c:	f9400000 	ldr	x0, [x0]
ffff00000008c420:	2a0003e1 	mov	w1, w0
ffff00000008c424:	aa0203e0 	mov	x0, x2
ffff00000008c428:	97fffc23 	bl	ffff00000008b4b4 <get_file_size>
ffff00000008c42c:	a8c37bfd 	ldp	x29, x30, [sp], #48
ffff00000008c430:	d65f03c0 	ret

ffff00000008c434 <sys_read_file>:
ffff00000008c434:	a9bd7bfd 	stp	x29, x30, [sp, #-48]!
ffff00000008c438:	910003fd 	mov	x29, sp
ffff00000008c43c:	f9000fe0 	str	x0, [sp, #24]
ffff00000008c440:	97fffd3d 	bl	ffff00000008b934 <get_pc>
ffff00000008c444:	f90017e0 	str	x0, [sp, #40]
ffff00000008c448:	f94017e0 	ldr	x0, [sp, #40]
ffff00000008c44c:	f9400004 	ldr	x4, [x0]
ffff00000008c450:	f9400fe0 	ldr	x0, [sp, #24]
ffff00000008c454:	f9400000 	ldr	x0, [x0]
ffff00000008c458:	2a0003e1 	mov	w1, w0
ffff00000008c45c:	f9400fe0 	ldr	x0, [sp, #24]
ffff00000008c460:	91002000 	add	x0, x0, #0x8
ffff00000008c464:	f9400000 	ldr	x0, [x0]
ffff00000008c468:	aa0003e2 	mov	x2, x0
ffff00000008c46c:	f9400fe0 	ldr	x0, [sp, #24]
ffff00000008c470:	91004000 	add	x0, x0, #0x10
ffff00000008c474:	f9400000 	ldr	x0, [x0]
ffff00000008c478:	2a0003e3 	mov	w3, w0
ffff00000008c47c:	aa0403e0 	mov	x0, x4
ffff00000008c480:	97fffb69 	bl	ffff00000008b224 <read_file>
ffff00000008c484:	a8c37bfd 	ldp	x29, x30, [sp], #48
ffff00000008c488:	d65f03c0 	ret

ffff00000008c48c <sys_fork>:
ffff00000008c48c:	a9be7bfd 	stp	x29, x30, [sp, #-32]!
ffff00000008c490:	910003fd 	mov	x29, sp
ffff00000008c494:	f9000fe0 	str	x0, [sp, #24]
ffff00000008c498:	97fffeec 	bl	ffff00000008c048 <fork>
ffff00000008c49c:	a8c27bfd 	ldp	x29, x30, [sp], #32
ffff00000008c4a0:	d65f03c0 	ret

ffff00000008c4a4 <sys_exec>:
ffff00000008c4a4:	a9bd7bfd 	stp	x29, x30, [sp, #-48]!
ffff00000008c4a8:	910003fd 	mov	x29, sp
ffff00000008c4ac:	f9000fe0 	str	x0, [sp, #24]
ffff00000008c4b0:	97fffd21 	bl	ffff00000008b934 <get_pc>
ffff00000008c4b4:	f90017e0 	str	x0, [sp, #40]
ffff00000008c4b8:	f94017e0 	ldr	x0, [sp, #40]
ffff00000008c4bc:	f9400000 	ldr	x0, [x0]
ffff00000008c4c0:	f90013e0 	str	x0, [sp, #32]
ffff00000008c4c4:	f9400fe0 	ldr	x0, [sp, #24]
ffff00000008c4c8:	f9400000 	ldr	x0, [x0]
ffff00000008c4cc:	aa0003e1 	mov	x1, x0
ffff00000008c4d0:	f94013e0 	ldr	x0, [sp, #32]
ffff00000008c4d4:	97ffff40 	bl	ffff00000008c1d4 <exec>
ffff00000008c4d8:	a8c37bfd 	ldp	x29, x30, [sp], #48
ffff00000008c4dc:	d65f03c0 	ret

ffff00000008c4e0 <sys_keyboard_read>:
ffff00000008c4e0:	a9be7bfd 	stp	x29, x30, [sp, #-32]!
ffff00000008c4e4:	910003fd 	mov	x29, sp
ffff00000008c4e8:	f9000fe0 	str	x0, [sp, #24]
ffff00000008c4ec:	9400010d 	bl	ffff00000008c920 <read_key_buffer>
ffff00000008c4f0:	12001c00 	and	w0, w0, #0xff
ffff00000008c4f4:	a8c27bfd 	ldp	x29, x30, [sp], #32
ffff00000008c4f8:	d65f03c0 	ret

ffff00000008c4fc <sys_read_root_directory>:
ffff00000008c4fc:	a9be7bfd 	stp	x29, x30, [sp, #-32]!
ffff00000008c500:	910003fd 	mov	x29, sp
ffff00000008c504:	f9000fe0 	str	x0, [sp, #24]
ffff00000008c508:	f9400fe0 	ldr	x0, [sp, #24]
ffff00000008c50c:	f9400000 	ldr	x0, [x0]
ffff00000008c510:	97fffc9d 	bl	ffff00000008b784 <read_root_directory>
ffff00000008c514:	a8c27bfd 	ldp	x29, x30, [sp], #32
ffff00000008c518:	d65f03c0 	ret

ffff00000008c51c <system_call>:
ffff00000008c51c:	a9bc7bfd 	stp	x29, x30, [sp, #-64]!
ffff00000008c520:	910003fd 	mov	x29, sp
ffff00000008c524:	f9000fe0 	str	x0, [sp, #24]
ffff00000008c528:	f9400fe0 	ldr	x0, [sp, #24]
ffff00000008c52c:	f9402000 	ldr	x0, [x0, #64]
ffff00000008c530:	f9001fe0 	str	x0, [sp, #56]
ffff00000008c534:	f9400fe0 	ldr	x0, [sp, #24]
ffff00000008c538:	f9400000 	ldr	x0, [x0]
ffff00000008c53c:	f9001be0 	str	x0, [sp, #48]
ffff00000008c540:	f9400fe0 	ldr	x0, [sp, #24]
ffff00000008c544:	f9400400 	ldr	x0, [x0, #8]
ffff00000008c548:	f90017e0 	str	x0, [sp, #40]
ffff00000008c54c:	f9401be0 	ldr	x0, [sp, #48]
ffff00000008c550:	f100001f 	cmp	x0, #0x0
ffff00000008c554:	540000eb 	b.lt	ffff00000008c570 <system_call+0x54>  // b.tstop
ffff00000008c558:	f9401fe0 	ldr	x0, [sp, #56]
ffff00000008c55c:	f100001f 	cmp	x0, #0x0
ffff00000008c560:	5400008b 	b.lt	ffff00000008c570 <system_call+0x54>  // b.tstop
ffff00000008c564:	f9401fe0 	ldr	x0, [sp, #56]
ffff00000008c568:	f1002c1f 	cmp	x0, #0xb
ffff00000008c56c:	540000ad 	b.le	ffff00000008c580 <system_call+0x64>
ffff00000008c570:	f9400fe0 	ldr	x0, [sp, #24]
ffff00000008c574:	92800001 	mov	x1, #0xffffffffffffffff    	// #-1
ffff00000008c578:	f9000001 	str	x1, [x0]
ffff00000008c57c:	1400000a 	b	ffff00000008c5a4 <system_call+0x88>
ffff00000008c580:	d0000020 	adrp	x0, ffff000000092000 <process_table+0x2028>
ffff00000008c584:	91060000 	add	x0, x0, #0x180
ffff00000008c588:	f9401fe1 	ldr	x1, [sp, #56]
ffff00000008c58c:	f8617801 	ldr	x1, [x0, x1, lsl #3]
ffff00000008c590:	f94017e0 	ldr	x0, [sp, #40]
ffff00000008c594:	d63f0020 	blr	x1
ffff00000008c598:	93407c01 	sxtw	x1, w0
ffff00000008c59c:	f9400fe0 	ldr	x0, [sp, #24]
ffff00000008c5a0:	f9000001 	str	x1, [x0]
ffff00000008c5a4:	a8c47bfd 	ldp	x29, x30, [sp], #64
ffff00000008c5a8:	d65f03c0 	ret

ffff00000008c5ac <init_system_call>:
ffff00000008c5ac:	d0000020 	adrp	x0, ffff000000092000 <process_table+0x2028>
ffff00000008c5b0:	91060000 	add	x0, x0, #0x180
ffff00000008c5b4:	90000001 	adrp	x1, ffff00000008c000 <wait+0x11c>
ffff00000008c5b8:	910a9021 	add	x1, x1, #0x2a4
ffff00000008c5bc:	f9000001 	str	x1, [x0]
ffff00000008c5c0:	d0000020 	adrp	x0, ffff000000092000 <process_table+0x2028>
ffff00000008c5c4:	91060000 	add	x0, x0, #0x180
ffff00000008c5c8:	90000001 	adrp	x1, ffff00000008c000 <wait+0x11c>
ffff00000008c5cc:	910ba021 	add	x1, x1, #0x2e8
ffff00000008c5d0:	f9000401 	str	x1, [x0, #8]
ffff00000008c5d4:	d0000020 	adrp	x0, ffff000000092000 <process_table+0x2028>
ffff00000008c5d8:	91060000 	add	x0, x0, #0x180
ffff00000008c5dc:	90000001 	adrp	x1, ffff00000008c000 <wait+0x11c>
ffff00000008c5e0:	910d2021 	add	x1, x1, #0x348
ffff00000008c5e4:	f9000801 	str	x1, [x0, #16]
ffff00000008c5e8:	d0000020 	adrp	x0, ffff000000092000 <process_table+0x2028>
ffff00000008c5ec:	91060000 	add	x0, x0, #0x180
ffff00000008c5f0:	90000001 	adrp	x1, ffff00000008c000 <wait+0x11c>
ffff00000008c5f4:	910d9021 	add	x1, x1, #0x364
ffff00000008c5f8:	f9000c01 	str	x1, [x0, #24]
ffff00000008c5fc:	d0000020 	adrp	x0, ffff000000092000 <process_table+0x2028>
ffff00000008c600:	91060000 	add	x0, x0, #0x180
ffff00000008c604:	90000001 	adrp	x1, ffff00000008c000 <wait+0x11c>
ffff00000008c608:	910e2021 	add	x1, x1, #0x388
ffff00000008c60c:	f9001001 	str	x1, [x0, #32]
ffff00000008c610:	d0000020 	adrp	x0, ffff000000092000 <process_table+0x2028>
ffff00000008c614:	91060000 	add	x0, x0, #0x180
ffff00000008c618:	90000001 	adrp	x1, ffff00000008c000 <wait+0x11c>
ffff00000008c61c:	910f0021 	add	x1, x1, #0x3c0
ffff00000008c620:	f9001401 	str	x1, [x0, #40]
ffff00000008c624:	d0000020 	adrp	x0, ffff000000092000 <process_table+0x2028>
ffff00000008c628:	91060000 	add	x0, x0, #0x180
ffff00000008c62c:	90000001 	adrp	x1, ffff00000008c000 <wait+0x11c>
ffff00000008c630:	910ff021 	add	x1, x1, #0x3fc
ffff00000008c634:	f9001801 	str	x1, [x0, #48]
ffff00000008c638:	d0000020 	adrp	x0, ffff000000092000 <process_table+0x2028>
ffff00000008c63c:	91060000 	add	x0, x0, #0x180
ffff00000008c640:	90000001 	adrp	x1, ffff00000008c000 <wait+0x11c>
ffff00000008c644:	9110d021 	add	x1, x1, #0x434
ffff00000008c648:	f9001c01 	str	x1, [x0, #56]
ffff00000008c64c:	d0000020 	adrp	x0, ffff000000092000 <process_table+0x2028>
ffff00000008c650:	91060000 	add	x0, x0, #0x180
ffff00000008c654:	90000001 	adrp	x1, ffff00000008c000 <wait+0x11c>
ffff00000008c658:	91123021 	add	x1, x1, #0x48c
ffff00000008c65c:	f9002001 	str	x1, [x0, #64]
ffff00000008c660:	d0000020 	adrp	x0, ffff000000092000 <process_table+0x2028>
ffff00000008c664:	91060000 	add	x0, x0, #0x180
ffff00000008c668:	90000001 	adrp	x1, ffff00000008c000 <wait+0x11c>
ffff00000008c66c:	91129021 	add	x1, x1, #0x4a4
ffff00000008c670:	f9002401 	str	x1, [x0, #72]
ffff00000008c674:	d0000020 	adrp	x0, ffff000000092000 <process_table+0x2028>
ffff00000008c678:	91060000 	add	x0, x0, #0x180
ffff00000008c67c:	90000001 	adrp	x1, ffff00000008c000 <wait+0x11c>
ffff00000008c680:	91138021 	add	x1, x1, #0x4e0
ffff00000008c684:	f9002801 	str	x1, [x0, #80]
ffff00000008c688:	d0000020 	adrp	x0, ffff000000092000 <process_table+0x2028>
ffff00000008c68c:	91060000 	add	x0, x0, #0x180
ffff00000008c690:	90000001 	adrp	x1, ffff00000008c000 <wait+0x11c>
ffff00000008c694:	9113f021 	add	x1, x1, #0x4fc
ffff00000008c698:	f9002c01 	str	x1, [x0, #88]
ffff00000008c69c:	d503201f 	nop
ffff00000008c6a0:	d65f03c0 	ret

ffff00000008c6a4 <append_list_tail>:
ffff00000008c6a4:	a9be7bfd 	stp	x29, x30, [sp, #-32]!
ffff00000008c6a8:	910003fd 	mov	x29, sp
ffff00000008c6ac:	f9000fe0 	str	x0, [sp, #24]
ffff00000008c6b0:	f9000be1 	str	x1, [sp, #16]
ffff00000008c6b4:	f9400be0 	ldr	x0, [sp, #16]
ffff00000008c6b8:	f900001f 	str	xzr, [x0]
ffff00000008c6bc:	f9400fe0 	ldr	x0, [sp, #24]
ffff00000008c6c0:	94000031 	bl	ffff00000008c784 <is_list_empty>
ffff00000008c6c4:	12001c00 	and	w0, w0, #0xff
ffff00000008c6c8:	12000000 	and	w0, w0, #0x1
ffff00000008c6cc:	7100001f 	cmp	w0, #0x0
ffff00000008c6d0:	54000100 	b.eq	ffff00000008c6f0 <append_list_tail+0x4c>  // b.none
ffff00000008c6d4:	f9400fe0 	ldr	x0, [sp, #24]
ffff00000008c6d8:	f9400be1 	ldr	x1, [sp, #16]
ffff00000008c6dc:	f9000001 	str	x1, [x0]
ffff00000008c6e0:	f9400fe0 	ldr	x0, [sp, #24]
ffff00000008c6e4:	f9400be1 	ldr	x1, [sp, #16]
ffff00000008c6e8:	f9000401 	str	x1, [x0, #8]
ffff00000008c6ec:	14000008 	b	ffff00000008c70c <append_list_tail+0x68>
ffff00000008c6f0:	f9400fe0 	ldr	x0, [sp, #24]
ffff00000008c6f4:	f9400400 	ldr	x0, [x0, #8]
ffff00000008c6f8:	f9400be1 	ldr	x1, [sp, #16]
ffff00000008c6fc:	f9000001 	str	x1, [x0]
ffff00000008c700:	f9400fe0 	ldr	x0, [sp, #24]
ffff00000008c704:	f9400be1 	ldr	x1, [sp, #16]
ffff00000008c708:	f9000401 	str	x1, [x0, #8]
ffff00000008c70c:	d503201f 	nop
ffff00000008c710:	a8c27bfd 	ldp	x29, x30, [sp], #32
ffff00000008c714:	d65f03c0 	ret

ffff00000008c718 <remove_list_head>:
ffff00000008c718:	a9bd7bfd 	stp	x29, x30, [sp, #-48]!
ffff00000008c71c:	910003fd 	mov	x29, sp
ffff00000008c720:	f9000fe0 	str	x0, [sp, #24]
ffff00000008c724:	f9400fe0 	ldr	x0, [sp, #24]
ffff00000008c728:	94000017 	bl	ffff00000008c784 <is_list_empty>
ffff00000008c72c:	12001c00 	and	w0, w0, #0xff
ffff00000008c730:	12000000 	and	w0, w0, #0x1
ffff00000008c734:	7100001f 	cmp	w0, #0x0
ffff00000008c738:	54000060 	b.eq	ffff00000008c744 <remove_list_head+0x2c>  // b.none
ffff00000008c73c:	d2800000 	mov	x0, #0x0                   	// #0
ffff00000008c740:	1400000f 	b	ffff00000008c77c <remove_list_head+0x64>
ffff00000008c744:	f9400fe0 	ldr	x0, [sp, #24]
ffff00000008c748:	f9400000 	ldr	x0, [x0]
ffff00000008c74c:	f90017e0 	str	x0, [sp, #40]
ffff00000008c750:	f94017e0 	ldr	x0, [sp, #40]
ffff00000008c754:	f9400001 	ldr	x1, [x0]
ffff00000008c758:	f9400fe0 	ldr	x0, [sp, #24]
ffff00000008c75c:	f9000001 	str	x1, [x0]
ffff00000008c760:	f9400fe0 	ldr	x0, [sp, #24]
ffff00000008c764:	f9400000 	ldr	x0, [x0]
ffff00000008c768:	f100001f 	cmp	x0, #0x0
ffff00000008c76c:	54000061 	b.ne	ffff00000008c778 <remove_list_head+0x60>  // b.any
ffff00000008c770:	f9400fe0 	ldr	x0, [sp, #24]
ffff00000008c774:	f900041f 	str	xzr, [x0, #8]
ffff00000008c778:	f94017e0 	ldr	x0, [sp, #40]
ffff00000008c77c:	a8c37bfd 	ldp	x29, x30, [sp], #48
ffff00000008c780:	d65f03c0 	ret

ffff00000008c784 <is_list_empty>:
ffff00000008c784:	d10043ff 	sub	sp, sp, #0x10
ffff00000008c788:	f90007e0 	str	x0, [sp, #8]
ffff00000008c78c:	f94007e0 	ldr	x0, [sp, #8]
ffff00000008c790:	f9400000 	ldr	x0, [x0]
ffff00000008c794:	f100001f 	cmp	x0, #0x0
ffff00000008c798:	1a9f17e0 	cset	w0, eq	// eq = none
ffff00000008c79c:	12001c00 	and	w0, w0, #0xff
ffff00000008c7a0:	910043ff 	add	sp, sp, #0x10
ffff00000008c7a4:	d65f03c0 	ret

ffff00000008c7a8 <remove_list>:
ffff00000008c7a8:	d100c3ff 	sub	sp, sp, #0x30
ffff00000008c7ac:	f90007e0 	str	x0, [sp, #8]
ffff00000008c7b0:	b90007e1 	str	w1, [sp, #4]
ffff00000008c7b4:	f94007e0 	ldr	x0, [sp, #8]
ffff00000008c7b8:	f9400000 	ldr	x0, [x0]
ffff00000008c7bc:	f90017e0 	str	x0, [sp, #40]
ffff00000008c7c0:	f94007e0 	ldr	x0, [sp, #8]
ffff00000008c7c4:	f90013e0 	str	x0, [sp, #32]
ffff00000008c7c8:	f9000fff 	str	xzr, [sp, #24]
ffff00000008c7cc:	14000020 	b	ffff00000008c84c <remove_list+0xa4>
ffff00000008c7d0:	f94017e0 	ldr	x0, [sp, #40]
ffff00000008c7d4:	b9401000 	ldr	w0, [x0, #16]
ffff00000008c7d8:	b94007e1 	ldr	w1, [sp, #4]
ffff00000008c7dc:	6b00003f 	cmp	w1, w0
ffff00000008c7e0:	540002c1 	b.ne	ffff00000008c838 <remove_list+0x90>  // b.any
ffff00000008c7e4:	f94017e0 	ldr	x0, [sp, #40]
ffff00000008c7e8:	f9400001 	ldr	x1, [x0]
ffff00000008c7ec:	f94013e0 	ldr	x0, [sp, #32]
ffff00000008c7f0:	f9000001 	str	x1, [x0]
ffff00000008c7f4:	f94017e0 	ldr	x0, [sp, #40]
ffff00000008c7f8:	f9000fe0 	str	x0, [sp, #24]
ffff00000008c7fc:	f94007e0 	ldr	x0, [sp, #8]
ffff00000008c800:	f9400000 	ldr	x0, [x0]
ffff00000008c804:	f100001f 	cmp	x0, #0x0
ffff00000008c808:	54000081 	b.ne	ffff00000008c818 <remove_list+0x70>  // b.any
ffff00000008c80c:	f94007e0 	ldr	x0, [sp, #8]
ffff00000008c810:	f900041f 	str	xzr, [x0, #8]
ffff00000008c814:	14000012 	b	ffff00000008c85c <remove_list+0xb4>
ffff00000008c818:	f94017e0 	ldr	x0, [sp, #40]
ffff00000008c81c:	f9400000 	ldr	x0, [x0]
ffff00000008c820:	f100001f 	cmp	x0, #0x0
ffff00000008c824:	540001c1 	b.ne	ffff00000008c85c <remove_list+0xb4>  // b.any
ffff00000008c828:	f94007e0 	ldr	x0, [sp, #8]
ffff00000008c82c:	f94013e1 	ldr	x1, [sp, #32]
ffff00000008c830:	f9000401 	str	x1, [x0, #8]
ffff00000008c834:	1400000a 	b	ffff00000008c85c <remove_list+0xb4>
ffff00000008c838:	f94017e0 	ldr	x0, [sp, #40]
ffff00000008c83c:	f90013e0 	str	x0, [sp, #32]
ffff00000008c840:	f94017e0 	ldr	x0, [sp, #40]
ffff00000008c844:	f9400000 	ldr	x0, [x0]
ffff00000008c848:	f90017e0 	str	x0, [sp, #40]
ffff00000008c84c:	f94017e0 	ldr	x0, [sp, #40]
ffff00000008c850:	f100001f 	cmp	x0, #0x0
ffff00000008c854:	54fffbe1 	b.ne	ffff00000008c7d0 <remove_list+0x28>  // b.any
ffff00000008c858:	14000002 	b	ffff00000008c860 <remove_list+0xb8>
ffff00000008c85c:	d503201f 	nop
ffff00000008c860:	f9400fe0 	ldr	x0, [sp, #24]
ffff00000008c864:	9100c3ff 	add	sp, sp, #0x30
ffff00000008c868:	d65f03c0 	ret

ffff00000008c86c <write_key_buffer>:
ffff00000008c86c:	d10083ff 	sub	sp, sp, #0x20
ffff00000008c870:	39003fe0 	strb	w0, [sp, #15]
ffff00000008c874:	f0000000 	adrp	x0, ffff00000008f000 <font_data+0xf68>
ffff00000008c878:	9135a000 	add	x0, x0, #0xd68
ffff00000008c87c:	b941f400 	ldr	w0, [x0, #500]
ffff00000008c880:	b9001fe0 	str	w0, [sp, #28]
ffff00000008c884:	f0000000 	adrp	x0, ffff00000008f000 <font_data+0xf68>
ffff00000008c888:	9135a000 	add	x0, x0, #0xd68
ffff00000008c88c:	b941f800 	ldr	w0, [x0, #504]
ffff00000008c890:	b9001be0 	str	w0, [sp, #24]
ffff00000008c894:	f0000000 	adrp	x0, ffff00000008f000 <font_data+0xf68>
ffff00000008c898:	9135a000 	add	x0, x0, #0xd68
ffff00000008c89c:	b941fc00 	ldr	w0, [x0, #508]
ffff00000008c8a0:	b90017e0 	str	w0, [sp, #20]
ffff00000008c8a4:	b9401be0 	ldr	w0, [sp, #24]
ffff00000008c8a8:	11000400 	add	w0, w0, #0x1
ffff00000008c8ac:	b94017e1 	ldr	w1, [sp, #20]
ffff00000008c8b0:	1ac10c02 	sdiv	w2, w0, w1
ffff00000008c8b4:	b94017e1 	ldr	w1, [sp, #20]
ffff00000008c8b8:	1b017c41 	mul	w1, w2, w1
ffff00000008c8bc:	4b010000 	sub	w0, w0, w1
ffff00000008c8c0:	b9401fe1 	ldr	w1, [sp, #28]
ffff00000008c8c4:	6b00003f 	cmp	w1, w0
ffff00000008c8c8:	54000260 	b.eq	ffff00000008c914 <write_key_buffer+0xa8>  // b.none
ffff00000008c8cc:	b9401be0 	ldr	w0, [sp, #24]
ffff00000008c8d0:	11000401 	add	w1, w0, #0x1
ffff00000008c8d4:	b9001be1 	str	w1, [sp, #24]
ffff00000008c8d8:	f0000001 	adrp	x1, ffff00000008f000 <font_data+0xf68>
ffff00000008c8dc:	9135a021 	add	x1, x1, #0xd68
ffff00000008c8e0:	93407c00 	sxtw	x0, w0
ffff00000008c8e4:	39403fe2 	ldrb	w2, [sp, #15]
ffff00000008c8e8:	38206822 	strb	w2, [x1, x0]
ffff00000008c8ec:	b9401be0 	ldr	w0, [sp, #24]
ffff00000008c8f0:	b94017e1 	ldr	w1, [sp, #20]
ffff00000008c8f4:	1ac10c02 	sdiv	w2, w0, w1
ffff00000008c8f8:	b94017e1 	ldr	w1, [sp, #20]
ffff00000008c8fc:	1b017c41 	mul	w1, w2, w1
ffff00000008c900:	4b010001 	sub	w1, w0, w1
ffff00000008c904:	f0000000 	adrp	x0, ffff00000008f000 <font_data+0xf68>
ffff00000008c908:	9135a000 	add	x0, x0, #0xd68
ffff00000008c90c:	b901f801 	str	w1, [x0, #504]
ffff00000008c910:	14000002 	b	ffff00000008c918 <write_key_buffer+0xac>
ffff00000008c914:	d503201f 	nop
ffff00000008c918:	910083ff 	add	sp, sp, #0x20
ffff00000008c91c:	d65f03c0 	ret

ffff00000008c920 <read_key_buffer>:
ffff00000008c920:	a9be7bfd 	stp	x29, x30, [sp, #-32]!
ffff00000008c924:	910003fd 	mov	x29, sp
ffff00000008c928:	f0000000 	adrp	x0, ffff00000008f000 <font_data+0xf68>
ffff00000008c92c:	9135a000 	add	x0, x0, #0xd68
ffff00000008c930:	b941f400 	ldr	w0, [x0, #500]
ffff00000008c934:	b9001fe0 	str	w0, [sp, #28]
ffff00000008c938:	f0000000 	adrp	x0, ffff00000008f000 <font_data+0xf68>
ffff00000008c93c:	9135a000 	add	x0, x0, #0xd68
ffff00000008c940:	b941f800 	ldr	w0, [x0, #504]
ffff00000008c944:	b9401fe1 	ldr	w1, [sp, #28]
ffff00000008c948:	6b00003f 	cmp	w1, w0
ffff00000008c94c:	54000061 	b.ne	ffff00000008c958 <read_key_buffer+0x38>  // b.any
ffff00000008c950:	12800020 	mov	w0, #0xfffffffe            	// #-2
ffff00000008c954:	97fffd15 	bl	ffff00000008bda8 <sleep>
ffff00000008c958:	f0000000 	adrp	x0, ffff00000008f000 <font_data+0xf68>
ffff00000008c95c:	9135a000 	add	x0, x0, #0xd68
ffff00000008c960:	b941f400 	ldr	w0, [x0, #500]
ffff00000008c964:	11000400 	add	w0, w0, #0x1
ffff00000008c968:	f0000001 	adrp	x1, ffff00000008f000 <font_data+0xf68>
ffff00000008c96c:	9135a021 	add	x1, x1, #0xd68
ffff00000008c970:	b941fc21 	ldr	w1, [x1, #508]
ffff00000008c974:	1ac10c02 	sdiv	w2, w0, w1
ffff00000008c978:	1b017c41 	mul	w1, w2, w1
ffff00000008c97c:	4b010001 	sub	w1, w0, w1
ffff00000008c980:	f0000000 	adrp	x0, ffff00000008f000 <font_data+0xf68>
ffff00000008c984:	9135a000 	add	x0, x0, #0xd68
ffff00000008c988:	b901f401 	str	w1, [x0, #500]
ffff00000008c98c:	f0000000 	adrp	x0, ffff00000008f000 <font_data+0xf68>
ffff00000008c990:	9135a001 	add	x1, x0, #0xd68
ffff00000008c994:	b9801fe0 	ldrsw	x0, [sp, #28]
ffff00000008c998:	38606820 	ldrb	w0, [x1, x0]
ffff00000008c99c:	a8c27bfd 	ldp	x29, x30, [sp], #32
ffff00000008c9a0:	d65f03c0 	ret

ffff00000008c9a4 <keyboard_read>:
ffff00000008c9a4:	a9bf7bfd 	stp	x29, x30, [sp, #-16]!
ffff00000008c9a8:	910003fd 	mov	x29, sp
ffff00000008c9ac:	97ffce0b 	bl	ffff0000000801d8 <read_char>
ffff00000008c9b0:	12001c00 	and	w0, w0, #0xff
ffff00000008c9b4:	a8c17bfd 	ldp	x29, x30, [sp], #16
ffff00000008c9b8:	d65f03c0 	ret

ffff00000008c9bc <keyboard_handler>:
ffff00000008c9bc:	a9be7bfd 	stp	x29, x30, [sp, #-32]!
ffff00000008c9c0:	910003fd 	mov	x29, sp
ffff00000008c9c4:	97fffff8 	bl	ffff00000008c9a4 <keyboard_read>
ffff00000008c9c8:	39007fe0 	strb	w0, [sp, #31]
ffff00000008c9cc:	39407fe0 	ldrb	w0, [sp, #31]
ffff00000008c9d0:	97ffffa7 	bl	ffff00000008c86c <write_key_buffer>
ffff00000008c9d4:	12800020 	mov	w0, #0xfffffffe            	// #-2
ffff00000008c9d8:	97fffd0a 	bl	ffff00000008be00 <wake_up>
ffff00000008c9dc:	d503201f 	nop
ffff00000008c9e0:	a8c27bfd 	ldp	x29, x30, [sp], #32
ffff00000008c9e4:	d65f03c0 	ret

ffff00000008c9e8 <wait_cycles>:
ffff00000008c9e8:	d10043ff 	sub	sp, sp, #0x10
ffff00000008c9ec:	b9000fe0 	str	w0, [sp, #12]
ffff00000008c9f0:	b9400fe0 	ldr	w0, [sp, #12]
ffff00000008c9f4:	7100001f 	cmp	w0, #0x0
ffff00000008c9f8:	54000100 	b.eq	ffff00000008ca18 <wait_cycles+0x30>  // b.none
ffff00000008c9fc:	14000002 	b	ffff00000008ca04 <wait_cycles+0x1c>
ffff00000008ca00:	d503201f 	nop
ffff00000008ca04:	b9400fe0 	ldr	w0, [sp, #12]
ffff00000008ca08:	51000401 	sub	w1, w0, #0x1
ffff00000008ca0c:	b9000fe1 	str	w1, [sp, #12]
ffff00000008ca10:	7100001f 	cmp	w0, #0x0
ffff00000008ca14:	54ffff61 	b.ne	ffff00000008ca00 <wait_cycles+0x18>  // b.any
ffff00000008ca18:	d503201f 	nop
ffff00000008ca1c:	910043ff 	add	sp, sp, #0x10
ffff00000008ca20:	d65f03c0 	ret

ffff00000008ca24 <wait_micro_sec>:
ffff00000008ca24:	a9bd53f3 	stp	x19, x20, [sp, #-48]!
ffff00000008ca28:	b9001fe0 	str	w0, [sp, #28]
ffff00000008ca2c:	d53be000 	mrs	x0, cntfrq_el0
ffff00000008ca30:	aa0003f4 	mov	x20, x0
ffff00000008ca34:	d53be020 	mrs	x0, cntpct_el0
ffff00000008ca38:	aa0003f3 	mov	x19, x0
ffff00000008ca3c:	d343fe81 	lsr	x1, x20, #3
ffff00000008ca40:	d29ef9e0 	mov	x0, #0xf7cf                	// #63439
ffff00000008ca44:	f2bc6a60 	movk	x0, #0xe353, lsl #16
ffff00000008ca48:	f2d374a0 	movk	x0, #0x9ba5, lsl #32
ffff00000008ca4c:	f2e41880 	movk	x0, #0x20c4, lsl #48
ffff00000008ca50:	9bc07c20 	umulh	x0, x1, x0
ffff00000008ca54:	d344fc01 	lsr	x1, x0, #4
ffff00000008ca58:	b9401fe0 	ldr	w0, [sp, #28]
ffff00000008ca5c:	9b007c20 	mul	x0, x1, x0
ffff00000008ca60:	d343fc01 	lsr	x1, x0, #3
ffff00000008ca64:	d29ef9e0 	mov	x0, #0xf7cf                	// #63439
ffff00000008ca68:	f2bc6a60 	movk	x0, #0xe353, lsl #16
ffff00000008ca6c:	f2d374a0 	movk	x0, #0x9ba5, lsl #32
ffff00000008ca70:	f2e41880 	movk	x0, #0x20c4, lsl #48
ffff00000008ca74:	9bc07c20 	umulh	x0, x1, x0
ffff00000008ca78:	d344fc00 	lsr	x0, x0, #4
ffff00000008ca7c:	f90017e0 	str	x0, [sp, #40]
ffff00000008ca80:	d53be020 	mrs	x0, cntpct_el0
ffff00000008ca84:	aa0003f4 	mov	x20, x0
ffff00000008ca88:	cb130280 	sub	x0, x20, x19
ffff00000008ca8c:	f94017e1 	ldr	x1, [sp, #40]
ffff00000008ca90:	eb00003f 	cmp	x1, x0
ffff00000008ca94:	54ffff68 	b.hi	ffff00000008ca80 <wait_micro_sec+0x5c>  // b.pmore
ffff00000008ca98:	d503201f 	nop
ffff00000008ca9c:	d503201f 	nop
ffff00000008caa0:	a8c353f3 	ldp	x19, x20, [sp], #48
ffff00000008caa4:	d65f03c0 	ret

ffff00000008caa8 <get_system_timer>:
ffff00000008caa8:	d10043ff 	sub	sp, sp, #0x10
ffff00000008caac:	12800000 	mov	w0, #0xffffffff            	// #-1
ffff00000008cab0:	b9000fe0 	str	w0, [sp, #12]
ffff00000008cab4:	d2860100 	mov	x0, #0x3008                	// #12296
ffff00000008cab8:	f2a7e000 	movk	x0, #0x3f00, lsl #16
ffff00000008cabc:	f2ffffe0 	movk	x0, #0xffff, lsl #48
ffff00000008cac0:	b9400000 	ldr	w0, [x0]
ffff00000008cac4:	b9000fe0 	str	w0, [sp, #12]
ffff00000008cac8:	d2860080 	mov	x0, #0x3004                	// #12292
ffff00000008cacc:	f2a7e000 	movk	x0, #0x3f00, lsl #16
ffff00000008cad0:	f2ffffe0 	movk	x0, #0xffff, lsl #48
ffff00000008cad4:	b9400000 	ldr	w0, [x0]
ffff00000008cad8:	b9000be0 	str	w0, [sp, #8]
ffff00000008cadc:	d2860100 	mov	x0, #0x3008                	// #12296
ffff00000008cae0:	f2a7e000 	movk	x0, #0x3f00, lsl #16
ffff00000008cae4:	f2ffffe0 	movk	x0, #0xffff, lsl #48
ffff00000008cae8:	b9400000 	ldr	w0, [x0]
ffff00000008caec:	b9400fe1 	ldr	w1, [sp, #12]
ffff00000008caf0:	6b00003f 	cmp	w1, w0
ffff00000008caf4:	54000160 	b.eq	ffff00000008cb20 <get_system_timer+0x78>  // b.none
ffff00000008caf8:	d2860100 	mov	x0, #0x3008                	// #12296
ffff00000008cafc:	f2a7e000 	movk	x0, #0x3f00, lsl #16
ffff00000008cb00:	f2ffffe0 	movk	x0, #0xffff, lsl #48
ffff00000008cb04:	b9400000 	ldr	w0, [x0]
ffff00000008cb08:	b9000fe0 	str	w0, [sp, #12]
ffff00000008cb0c:	d2860080 	mov	x0, #0x3004                	// #12292
ffff00000008cb10:	f2a7e000 	movk	x0, #0x3f00, lsl #16
ffff00000008cb14:	f2ffffe0 	movk	x0, #0xffff, lsl #48
ffff00000008cb18:	b9400000 	ldr	w0, [x0]
ffff00000008cb1c:	b9000be0 	str	w0, [sp, #8]
ffff00000008cb20:	b9400fe0 	ldr	w0, [sp, #12]
ffff00000008cb24:	d3607c01 	lsl	x1, x0, #32
ffff00000008cb28:	b9400be0 	ldr	w0, [sp, #8]
ffff00000008cb2c:	aa000020 	orr	x0, x1, x0
ffff00000008cb30:	910043ff 	add	sp, sp, #0x10
ffff00000008cb34:	d65f03c0 	ret

ffff00000008cb38 <wait_micro_sec_st>:
ffff00000008cb38:	a9bd7bfd 	stp	x29, x30, [sp, #-48]!
ffff00000008cb3c:	910003fd 	mov	x29, sp
ffff00000008cb40:	b9001fe0 	str	w0, [sp, #28]
ffff00000008cb44:	97ffffd9 	bl	ffff00000008caa8 <get_system_timer>
ffff00000008cb48:	f90017e0 	str	x0, [sp, #40]
ffff00000008cb4c:	f94017e0 	ldr	x0, [sp, #40]
ffff00000008cb50:	f100001f 	cmp	x0, #0x0
ffff00000008cb54:	54000120 	b.eq	ffff00000008cb78 <wait_micro_sec_st+0x40>  // b.none
ffff00000008cb58:	d503201f 	nop
ffff00000008cb5c:	97ffffd3 	bl	ffff00000008caa8 <get_system_timer>
ffff00000008cb60:	aa0003e1 	mov	x1, x0
ffff00000008cb64:	f94017e0 	ldr	x0, [sp, #40]
ffff00000008cb68:	cb000021 	sub	x1, x1, x0
ffff00000008cb6c:	b9401fe0 	ldr	w0, [sp, #28]
ffff00000008cb70:	eb00003f 	cmp	x1, x0
ffff00000008cb74:	54ffff43 	b.cc	ffff00000008cb5c <wait_micro_sec_st+0x24>  // b.lo, b.ul, b.last
ffff00000008cb78:	d503201f 	nop
ffff00000008cb7c:	a8c37bfd 	ldp	x29, x30, [sp], #48
ffff00000008cb80:	d65f03c0 	ret

ffff00000008cb84 <video_set_bg>:
ffff00000008cb84:	d10083ff 	sub	sp, sp, #0x20
ffff00000008cb88:	b9000fe0 	str	w0, [sp, #12]
ffff00000008cb8c:	b9001fff 	str	wzr, [sp, #28]
ffff00000008cb90:	1400000c 	b	ffff00000008cbc0 <video_set_bg+0x3c>
ffff00000008cb94:	d0000020 	adrp	x0, ffff000000092000 <process_table+0x2028>
ffff00000008cb98:	910a4000 	add	x0, x0, #0x290
ffff00000008cb9c:	f9400001 	ldr	x1, [x0]
ffff00000008cba0:	b9801fe0 	ldrsw	x0, [sp, #28]
ffff00000008cba4:	d37ef400 	lsl	x0, x0, #2
ffff00000008cba8:	8b000020 	add	x0, x1, x0
ffff00000008cbac:	b9400fe1 	ldr	w1, [sp, #12]
ffff00000008cbb0:	b9000001 	str	w1, [x0]
ffff00000008cbb4:	b9401fe0 	ldr	w0, [sp, #28]
ffff00000008cbb8:	11000400 	add	w0, w0, #0x1
ffff00000008cbbc:	b9001fe0 	str	w0, [sp, #28]
ffff00000008cbc0:	b9401fe1 	ldr	w1, [sp, #28]
ffff00000008cbc4:	12bffb00 	mov	w0, #0x27ffff              	// #2621439
ffff00000008cbc8:	6b00003f 	cmp	w1, w0
ffff00000008cbcc:	54fffe4d 	b.le	ffff00000008cb94 <video_set_bg+0x10>
ffff00000008cbd0:	b9001bff 	str	wzr, [sp, #24]
ffff00000008cbd4:	1400000c 	b	ffff00000008cc04 <video_set_bg+0x80>
ffff00000008cbd8:	d0000020 	adrp	x0, ffff000000092000 <process_table+0x2028>
ffff00000008cbdc:	910a6000 	add	x0, x0, #0x298
ffff00000008cbe0:	f9400001 	ldr	x1, [x0]
ffff00000008cbe4:	b9801be0 	ldrsw	x0, [sp, #24]
ffff00000008cbe8:	d37ef400 	lsl	x0, x0, #2
ffff00000008cbec:	8b000020 	add	x0, x1, x0
ffff00000008cbf0:	3200c3e1 	mov	w1, #0x1010101             	// #16843009
ffff00000008cbf4:	b9000001 	str	w1, [x0]
ffff00000008cbf8:	b9401be0 	ldr	w0, [sp, #24]
ffff00000008cbfc:	11000400 	add	w0, w0, #0x1
ffff00000008cc00:	b9001be0 	str	w0, [sp, #24]
ffff00000008cc04:	b9401be1 	ldr	w1, [sp, #24]
ffff00000008cc08:	12bffe00 	mov	w0, #0xfffff               	// #1048575
ffff00000008cc0c:	6b00003f 	cmp	w1, w0
ffff00000008cc10:	54fffe4d 	b.le	ffff00000008cbd8 <video_set_bg+0x54>
ffff00000008cc14:	d503201f 	nop
ffff00000008cc18:	d503201f 	nop
ffff00000008cc1c:	910083ff 	add	sp, sp, #0x20
ffff00000008cc20:	d65f03c0 	ret

ffff00000008cc24 <video_init>:
ffff00000008cc24:	a9bf7bfd 	stp	x29, x30, [sp, #-16]!
ffff00000008cc28:	910003fd 	mov	x29, sp
ffff00000008cc2c:	52801020 	mov	w0, #0x81                  	// #129
ffff00000008cc30:	94000380 	bl	ffff00000008da30 <dma_open_channel>
ffff00000008cc34:	aa0003e1 	mov	x1, x0
ffff00000008cc38:	d0000020 	adrp	x0, ffff000000092000 <process_table+0x2028>
ffff00000008cc3c:	910a0000 	add	x0, x0, #0x280
ffff00000008cc40:	f9000001 	str	x1, [x0]
ffff00000008cc44:	f0000001 	adrp	x1, ffff00000008f000 <font_data+0xf68>
ffff00000008cc48:	f947c021 	ldr	x1, [x1, #3968]
ffff00000008cc4c:	d2a03000 	mov	x0, #0x1800000             	// #25165824
ffff00000008cc50:	8b000021 	add	x1, x1, x0
ffff00000008cc54:	d0000020 	adrp	x0, ffff000000092000 <process_table+0x2028>
ffff00000008cc58:	910a2000 	add	x0, x0, #0x288
ffff00000008cc5c:	f9000001 	str	x1, [x0]
ffff00000008cc60:	f0000000 	adrp	x0, ffff00000008f000 <font_data+0xf68>
ffff00000008cc64:	f947c000 	ldr	x0, [x0, #3968]
ffff00000008cc68:	91680001 	add	x1, x0, #0xa00, lsl #12
ffff00000008cc6c:	d0000020 	adrp	x0, ffff000000092000 <process_table+0x2028>
ffff00000008cc70:	910a4000 	add	x0, x0, #0x290
ffff00000008cc74:	f9000001 	str	x1, [x0]
ffff00000008cc78:	f0000001 	adrp	x1, ffff00000008f000 <font_data+0xf68>
ffff00000008cc7c:	f947c021 	ldr	x1, [x1, #3968]
ffff00000008cc80:	d2a02800 	mov	x0, #0x1400000             	// #20971520
ffff00000008cc84:	8b000021 	add	x1, x1, x0
ffff00000008cc88:	d0000020 	adrp	x0, ffff000000092000 <process_table+0x2028>
ffff00000008cc8c:	910a6000 	add	x0, x0, #0x298
ffff00000008cc90:	f9000001 	str	x1, [x0]
ffff00000008cc94:	52814480 	mov	w0, #0xa24                 	// #2596
ffff00000008cc98:	72bfe600 	movk	w0, #0xff30, lsl #16
ffff00000008cc9c:	97ffffba 	bl	ffff00000008cb84 <video_set_bg>
ffff00000008cca0:	d503201f 	nop
ffff00000008cca4:	a8c17bfd 	ldp	x29, x30, [sp], #16
ffff00000008cca8:	d65f03c0 	ret

ffff00000008ccac <video_set_dma>:
ffff00000008ccac:	d10043ff 	sub	sp, sp, #0x10
ffff00000008ccb0:	39003fe0 	strb	w0, [sp, #15]
ffff00000008ccb4:	d0000020 	adrp	x0, ffff000000092000 <process_table+0x2028>
ffff00000008ccb8:	910a8000 	add	x0, x0, #0x2a0
ffff00000008ccbc:	39403fe1 	ldrb	w1, [sp, #15]
ffff00000008ccc0:	39000001 	strb	w1, [x0]
ffff00000008ccc4:	d503201f 	nop
ffff00000008ccc8:	910043ff 	add	sp, sp, #0x10
ffff00000008cccc:	d65f03c0 	ret

ffff00000008ccd0 <do_dma>:
ffff00000008ccd0:	a9bc7bfd 	stp	x29, x30, [sp, #-64]!
ffff00000008ccd4:	910003fd 	mov	x29, sp
ffff00000008ccd8:	f90017e0 	str	x0, [sp, #40]
ffff00000008ccdc:	f90013e1 	str	x1, [sp, #32]
ffff00000008cce0:	b9001fe2 	str	w2, [sp, #28]
ffff00000008cce4:	b9003fff 	str	wzr, [sp, #60]
ffff00000008cce8:	14000029 	b	ffff00000008cd8c <do_dma+0xbc>
ffff00000008ccec:	b9401fe0 	ldr	w0, [sp, #28]
ffff00000008ccf0:	b9003be0 	str	w0, [sp, #56]
ffff00000008ccf4:	b9403be1 	ldr	w1, [sp, #56]
ffff00000008ccf8:	12bfe000 	mov	w0, #0xffffff              	// #16777215
ffff00000008ccfc:	6b00003f 	cmp	w1, w0
ffff00000008cd00:	5400006d 	b.le	ffff00000008cd0c <do_dma+0x3c>
ffff00000008cd04:	12bfe000 	mov	w0, #0xffffff              	// #16777215
ffff00000008cd08:	b9003be0 	str	w0, [sp, #56]
ffff00000008cd0c:	d0000020 	adrp	x0, ffff000000092000 <process_table+0x2028>
ffff00000008cd10:	910a0000 	add	x0, x0, #0x280
ffff00000008cd14:	f9400005 	ldr	x5, [x0]
ffff00000008cd18:	b9403fe0 	ldr	w0, [sp, #60]
ffff00000008cd1c:	f94017e1 	ldr	x1, [sp, #40]
ffff00000008cd20:	8b000026 	add	x6, x1, x0
ffff00000008cd24:	b9403fe0 	ldr	w0, [sp, #60]
ffff00000008cd28:	f94013e1 	ldr	x1, [sp, #32]
ffff00000008cd2c:	8b000020 	add	x0, x1, x0
ffff00000008cd30:	b9403be1 	ldr	w1, [sp, #56]
ffff00000008cd34:	52800044 	mov	w4, #0x2                   	// #2
ffff00000008cd38:	2a0103e3 	mov	w3, w1
ffff00000008cd3c:	aa0003e2 	mov	x2, x0
ffff00000008cd40:	aa0603e1 	mov	x1, x6
ffff00000008cd44:	aa0503e0 	mov	x0, x5
ffff00000008cd48:	940003a6 	bl	ffff00000008dbe0 <dma_setup_mem_copy>
ffff00000008cd4c:	d0000020 	adrp	x0, ffff000000092000 <process_table+0x2028>
ffff00000008cd50:	910a0000 	add	x0, x0, #0x280
ffff00000008cd54:	f9400000 	ldr	x0, [x0]
ffff00000008cd58:	940003c4 	bl	ffff00000008dc68 <dma_start>
ffff00000008cd5c:	d0000020 	adrp	x0, ffff000000092000 <process_table+0x2028>
ffff00000008cd60:	910a0000 	add	x0, x0, #0x280
ffff00000008cd64:	f9400000 	ldr	x0, [x0]
ffff00000008cd68:	940003df 	bl	ffff00000008dce4 <dma_wait>
ffff00000008cd6c:	b9403be0 	ldr	w0, [sp, #56]
ffff00000008cd70:	b9403fe1 	ldr	w1, [sp, #60]
ffff00000008cd74:	0b000020 	add	w0, w1, w0
ffff00000008cd78:	b9003fe0 	str	w0, [sp, #60]
ffff00000008cd7c:	b9403be0 	ldr	w0, [sp, #56]
ffff00000008cd80:	b9401fe1 	ldr	w1, [sp, #28]
ffff00000008cd84:	4b000020 	sub	w0, w1, w0
ffff00000008cd88:	b9001fe0 	str	w0, [sp, #28]
ffff00000008cd8c:	b9401fe0 	ldr	w0, [sp, #28]
ffff00000008cd90:	7100001f 	cmp	w0, #0x0
ffff00000008cd94:	54fffac1 	b.ne	ffff00000008ccec <do_dma+0x1c>  // b.any
ffff00000008cd98:	d503201f 	nop
ffff00000008cd9c:	d503201f 	nop
ffff00000008cda0:	a8c47bfd 	ldp	x29, x30, [sp], #64
ffff00000008cda4:	d65f03c0 	ret

ffff00000008cda8 <video_dma>:
ffff00000008cda8:	a9bf7bfd 	stp	x29, x30, [sp, #-16]!
ffff00000008cdac:	910003fd 	mov	x29, sp
ffff00000008cdb0:	d0000020 	adrp	x0, ffff000000092000 <process_table+0x2028>
ffff00000008cdb4:	91088000 	add	x0, x0, #0x220
ffff00000008cdb8:	b9404400 	ldr	w0, [x0, #68]
ffff00000008cdbc:	32020000 	orr	w0, w0, #0x40000000
ffff00000008cdc0:	2a0003e0 	mov	w0, w0
ffff00000008cdc4:	92407401 	and	x1, x0, #0x3fffffff
ffff00000008cdc8:	d2ffffe0 	mov	x0, #0xffff000000000000    	// #-281474976710656
ffff00000008cdcc:	8b000020 	add	x0, x1, x0
ffff00000008cdd0:	aa0003e3 	mov	x3, x0
ffff00000008cdd4:	d0000020 	adrp	x0, ffff000000092000 <process_table+0x2028>
ffff00000008cdd8:	910a2000 	add	x0, x0, #0x288
ffff00000008cddc:	f9400001 	ldr	x1, [x0]
ffff00000008cde0:	d0000020 	adrp	x0, ffff000000092000 <process_table+0x2028>
ffff00000008cde4:	91088000 	add	x0, x0, #0x220
ffff00000008cde8:	b9404800 	ldr	w0, [x0, #72]
ffff00000008cdec:	2a0003e2 	mov	w2, w0
ffff00000008cdf0:	aa0303e0 	mov	x0, x3
ffff00000008cdf4:	97ffffb7 	bl	ffff00000008ccd0 <do_dma>
ffff00000008cdf8:	d503201f 	nop
ffff00000008cdfc:	a8c17bfd 	ldp	x29, x30, [sp], #16
ffff00000008ce00:	d65f03c0 	ret

ffff00000008ce04 <video_set_resolution>:
ffff00000008ce04:	a9ba7bfd 	stp	x29, x30, [sp, #-96]!
ffff00000008ce08:	910003fd 	mov	x29, sp
ffff00000008ce0c:	b9001fe0 	str	w0, [sp, #28]
ffff00000008ce10:	b9001be1 	str	w1, [sp, #24]
ffff00000008ce14:	b90017e2 	str	w2, [sp, #20]
ffff00000008ce18:	d0000020 	adrp	x0, ffff000000092000 <process_table+0x2028>
ffff00000008ce1c:	91088000 	add	x0, x0, #0x220
ffff00000008ce20:	52900061 	mov	w1, #0x8003                	// #32771
ffff00000008ce24:	72a00081 	movk	w1, #0x4, lsl #16
ffff00000008ce28:	b9000001 	str	w1, [x0]
ffff00000008ce2c:	d0000020 	adrp	x0, ffff000000092000 <process_table+0x2028>
ffff00000008ce30:	91088000 	add	x0, x0, #0x220
ffff00000008ce34:	52800101 	mov	w1, #0x8                   	// #8
ffff00000008ce38:	b9000401 	str	w1, [x0, #4]
ffff00000008ce3c:	d0000020 	adrp	x0, ffff000000092000 <process_table+0x2028>
ffff00000008ce40:	91088000 	add	x0, x0, #0x220
ffff00000008ce44:	52800101 	mov	w1, #0x8                   	// #8
ffff00000008ce48:	b9000801 	str	w1, [x0, #8]
ffff00000008ce4c:	d0000020 	adrp	x0, ffff000000092000 <process_table+0x2028>
ffff00000008ce50:	91088000 	add	x0, x0, #0x220
ffff00000008ce54:	b9401fe1 	ldr	w1, [sp, #28]
ffff00000008ce58:	b9000c01 	str	w1, [x0, #12]
ffff00000008ce5c:	d0000020 	adrp	x0, ffff000000092000 <process_table+0x2028>
ffff00000008ce60:	91088000 	add	x0, x0, #0x220
ffff00000008ce64:	b9401be1 	ldr	w1, [sp, #24]
ffff00000008ce68:	b9001001 	str	w1, [x0, #16]
ffff00000008ce6c:	d0000020 	adrp	x0, ffff000000092000 <process_table+0x2028>
ffff00000008ce70:	91088000 	add	x0, x0, #0x220
ffff00000008ce74:	52900081 	mov	w1, #0x8004                	// #32772
ffff00000008ce78:	72a00081 	movk	w1, #0x4, lsl #16
ffff00000008ce7c:	b9001401 	str	w1, [x0, #20]
ffff00000008ce80:	d0000020 	adrp	x0, ffff000000092000 <process_table+0x2028>
ffff00000008ce84:	91088000 	add	x0, x0, #0x220
ffff00000008ce88:	52800101 	mov	w1, #0x8                   	// #8
ffff00000008ce8c:	b9001801 	str	w1, [x0, #24]
ffff00000008ce90:	d0000020 	adrp	x0, ffff000000092000 <process_table+0x2028>
ffff00000008ce94:	91088000 	add	x0, x0, #0x220
ffff00000008ce98:	52800101 	mov	w1, #0x8                   	// #8
ffff00000008ce9c:	b9001c01 	str	w1, [x0, #28]
ffff00000008cea0:	d0000020 	adrp	x0, ffff000000092000 <process_table+0x2028>
ffff00000008cea4:	91088000 	add	x0, x0, #0x220
ffff00000008cea8:	b9401fe1 	ldr	w1, [sp, #28]
ffff00000008ceac:	b9002001 	str	w1, [x0, #32]
ffff00000008ceb0:	d0000020 	adrp	x0, ffff000000092000 <process_table+0x2028>
ffff00000008ceb4:	91088000 	add	x0, x0, #0x220
ffff00000008ceb8:	b9401be1 	ldr	w1, [sp, #24]
ffff00000008cebc:	b9002401 	str	w1, [x0, #36]
ffff00000008cec0:	d0000020 	adrp	x0, ffff000000092000 <process_table+0x2028>
ffff00000008cec4:	91088000 	add	x0, x0, #0x220
ffff00000008cec8:	529000a1 	mov	w1, #0x8005                	// #32773
ffff00000008cecc:	72a00081 	movk	w1, #0x4, lsl #16
ffff00000008ced0:	b9002801 	str	w1, [x0, #40]
ffff00000008ced4:	d0000020 	adrp	x0, ffff000000092000 <process_table+0x2028>
ffff00000008ced8:	91088000 	add	x0, x0, #0x220
ffff00000008cedc:	52800081 	mov	w1, #0x4                   	// #4
ffff00000008cee0:	b9002c01 	str	w1, [x0, #44]
ffff00000008cee4:	d0000020 	adrp	x0, ffff000000092000 <process_table+0x2028>
ffff00000008cee8:	91088000 	add	x0, x0, #0x220
ffff00000008ceec:	52800081 	mov	w1, #0x4                   	// #4
ffff00000008cef0:	b9003001 	str	w1, [x0, #48]
ffff00000008cef4:	d0000020 	adrp	x0, ffff000000092000 <process_table+0x2028>
ffff00000008cef8:	91088000 	add	x0, x0, #0x220
ffff00000008cefc:	b94017e1 	ldr	w1, [sp, #20]
ffff00000008cf00:	b9003401 	str	w1, [x0, #52]
ffff00000008cf04:	d0000020 	adrp	x0, ffff000000092000 <process_table+0x2028>
ffff00000008cf08:	91088000 	add	x0, x0, #0x220
ffff00000008cf0c:	52800021 	mov	w1, #0x1                   	// #1
ffff00000008cf10:	72a00081 	movk	w1, #0x4, lsl #16
ffff00000008cf14:	b9003801 	str	w1, [x0, #56]
ffff00000008cf18:	d0000020 	adrp	x0, ffff000000092000 <process_table+0x2028>
ffff00000008cf1c:	91088000 	add	x0, x0, #0x220
ffff00000008cf20:	52800101 	mov	w1, #0x8                   	// #8
ffff00000008cf24:	b9003c01 	str	w1, [x0, #60]
ffff00000008cf28:	d0000020 	adrp	x0, ffff000000092000 <process_table+0x2028>
ffff00000008cf2c:	91088000 	add	x0, x0, #0x220
ffff00000008cf30:	52800081 	mov	w1, #0x4                   	// #4
ffff00000008cf34:	b9004001 	str	w1, [x0, #64]
ffff00000008cf38:	d0000020 	adrp	x0, ffff000000092000 <process_table+0x2028>
ffff00000008cf3c:	91088000 	add	x0, x0, #0x220
ffff00000008cf40:	52800201 	mov	w1, #0x10                  	// #16
ffff00000008cf44:	b9004401 	str	w1, [x0, #68]
ffff00000008cf48:	d0000020 	adrp	x0, ffff000000092000 <process_table+0x2028>
ffff00000008cf4c:	91088000 	add	x0, x0, #0x220
ffff00000008cf50:	b900481f 	str	wzr, [x0, #72]
ffff00000008cf54:	d0000020 	adrp	x0, ffff000000092000 <process_table+0x2028>
ffff00000008cf58:	91088000 	add	x0, x0, #0x220
ffff00000008cf5c:	52800101 	mov	w1, #0x8                   	// #8
ffff00000008cf60:	72a00081 	movk	w1, #0x4, lsl #16
ffff00000008cf64:	b9004c01 	str	w1, [x0, #76]
ffff00000008cf68:	d0000020 	adrp	x0, ffff000000092000 <process_table+0x2028>
ffff00000008cf6c:	91088000 	add	x0, x0, #0x220
ffff00000008cf70:	52800081 	mov	w1, #0x4                   	// #4
ffff00000008cf74:	b9005001 	str	w1, [x0, #80]
ffff00000008cf78:	d0000020 	adrp	x0, ffff000000092000 <process_table+0x2028>
ffff00000008cf7c:	91088000 	add	x0, x0, #0x220
ffff00000008cf80:	52800081 	mov	w1, #0x4                   	// #4
ffff00000008cf84:	b9005401 	str	w1, [x0, #84]
ffff00000008cf88:	d0000020 	adrp	x0, ffff000000092000 <process_table+0x2028>
ffff00000008cf8c:	91088000 	add	x0, x0, #0x220
ffff00000008cf90:	b900581f 	str	wzr, [x0, #88]
ffff00000008cf94:	52900160 	mov	w0, #0x800b                	// #32779
ffff00000008cf98:	72a00080 	movk	w0, #0x4, lsl #16
ffff00000008cf9c:	b9002be0 	str	w0, [sp, #40]
ffff00000008cfa0:	52800500 	mov	w0, #0x28                  	// #40
ffff00000008cfa4:	b9002fe0 	str	w0, [sp, #44]
ffff00000008cfa8:	b90033ff 	str	wzr, [sp, #48]
ffff00000008cfac:	b90037ff 	str	wzr, [sp, #52]
ffff00000008cfb0:	52800100 	mov	w0, #0x8                   	// #8
ffff00000008cfb4:	b9003be0 	str	w0, [sp, #56]
ffff00000008cfb8:	b9003fff 	str	wzr, [sp, #60]
ffff00000008cfbc:	528aa000 	mov	w0, #0x5500                	// #21760
ffff00000008cfc0:	72bff760 	movk	w0, #0xffbb, lsl #16
ffff00000008cfc4:	b90043e0 	str	w0, [sp, #64]
ffff00000008cfc8:	12800000 	mov	w0, #0xffffffff            	// #-1
ffff00000008cfcc:	b90047e0 	str	w0, [sp, #68]
ffff00000008cfd0:	52bfffe0 	mov	w0, #0xffff0000            	// #-65536
ffff00000008cfd4:	b9004be0 	str	w0, [sp, #72]
ffff00000008cfd8:	32089fe0 	mov	w0, #0xff00ff00            	// #-16711936
ffff00000008cfdc:	b9004fe0 	str	w0, [sp, #76]
ffff00000008cfe0:	32083fe0 	mov	w0, #0xff0000ff            	// #-16776961
ffff00000008cfe4:	b90053e0 	str	w0, [sp, #80]
ffff00000008cfe8:	3200f3e0 	mov	w0, #0x55555555            	// #1431655765
ffff00000008cfec:	b90057e0 	str	w0, [sp, #84]
ffff00000008cff0:	3202e7e0 	mov	w0, #0xcccccccc            	// #-858993460
ffff00000008cff4:	b9005be0 	str	w0, [sp, #88]
ffff00000008cff8:	52800b81 	mov	w1, #0x5c                  	// #92
ffff00000008cffc:	d0000020 	adrp	x0, ffff000000092000 <process_table+0x2028>
ffff00000008d000:	91088000 	add	x0, x0, #0x220
ffff00000008d004:	94000197 	bl	ffff00000008d660 <mailbox_process>
ffff00000008d008:	b94017e0 	ldr	w0, [sp, #20]
ffff00000008d00c:	7100201f 	cmp	w0, #0x8
ffff00000008d010:	54000081 	b.ne	ffff00000008d020 <video_set_resolution+0x21c>  // b.any
ffff00000008d014:	9100a3e0 	add	x0, sp, #0x28
ffff00000008d018:	52800681 	mov	w1, #0x34                  	// #52
ffff00000008d01c:	94000191 	bl	ffff00000008d660 <mailbox_process>
ffff00000008d020:	94000004 	bl	ffff00000008d030 <video_clear_screen>
ffff00000008d024:	d503201f 	nop
ffff00000008d028:	a8c67bfd 	ldp	x29, x30, [sp], #96
ffff00000008d02c:	d65f03c0 	ret

ffff00000008d030 <video_clear_screen>:
ffff00000008d030:	a9bd7bfd 	stp	x29, x30, [sp, #-48]!
ffff00000008d034:	910003fd 	mov	x29, sp
ffff00000008d038:	b0000020 	adrp	x0, ffff000000092000 <process_table+0x2028>
ffff00000008d03c:	910a8000 	add	x0, x0, #0x2a0
ffff00000008d040:	39400000 	ldrb	w0, [x0]
ffff00000008d044:	52000000 	eor	w0, w0, #0x1
ffff00000008d048:	12001c00 	and	w0, w0, #0xff
ffff00000008d04c:	12000000 	and	w0, w0, #0x1
ffff00000008d050:	7100001f 	cmp	w0, #0x0
ffff00000008d054:	540009e0 	b.eq	ffff00000008d190 <video_clear_screen+0x160>  // b.none
ffff00000008d058:	b0000020 	adrp	x0, ffff000000092000 <process_table+0x2028>
ffff00000008d05c:	91088000 	add	x0, x0, #0x220
ffff00000008d060:	b9403400 	ldr	w0, [x0, #52]
ffff00000008d064:	7100801f 	cmp	w0, #0x20
ffff00000008d068:	54000461 	b.ne	ffff00000008d0f4 <video_clear_screen+0xc4>  // b.any
ffff00000008d06c:	b0000020 	adrp	x0, ffff000000092000 <process_table+0x2028>
ffff00000008d070:	91088000 	add	x0, x0, #0x220
ffff00000008d074:	b9404400 	ldr	w0, [x0, #68]
ffff00000008d078:	32020000 	orr	w0, w0, #0x40000000
ffff00000008d07c:	2a0003e0 	mov	w0, w0
ffff00000008d080:	92407401 	and	x1, x0, #0x3fffffff
ffff00000008d084:	d2ffffe0 	mov	x0, #0xffff000000000000    	// #-281474976710656
ffff00000008d088:	8b000020 	add	x0, x1, x0
ffff00000008d08c:	f9000fe0 	str	x0, [sp, #24]
ffff00000008d090:	b9002fff 	str	wzr, [sp, #44]
ffff00000008d094:	14000010 	b	ffff00000008d0d4 <video_clear_screen+0xa4>
ffff00000008d098:	b0000020 	adrp	x0, ffff000000092000 <process_table+0x2028>
ffff00000008d09c:	910a4000 	add	x0, x0, #0x290
ffff00000008d0a0:	f9400001 	ldr	x1, [x0]
ffff00000008d0a4:	b9802fe0 	ldrsw	x0, [sp, #44]
ffff00000008d0a8:	d37ef400 	lsl	x0, x0, #2
ffff00000008d0ac:	8b000021 	add	x1, x1, x0
ffff00000008d0b0:	b9802fe0 	ldrsw	x0, [sp, #44]
ffff00000008d0b4:	d37ef400 	lsl	x0, x0, #2
ffff00000008d0b8:	f9400fe2 	ldr	x2, [sp, #24]
ffff00000008d0bc:	8b000040 	add	x0, x2, x0
ffff00000008d0c0:	b9400021 	ldr	w1, [x1]
ffff00000008d0c4:	b9000001 	str	w1, [x0]
ffff00000008d0c8:	b9402fe0 	ldr	w0, [sp, #44]
ffff00000008d0cc:	11000400 	add	w0, w0, #0x1
ffff00000008d0d0:	b9002fe0 	str	w0, [sp, #44]
ffff00000008d0d4:	b0000020 	adrp	x0, ffff000000092000 <process_table+0x2028>
ffff00000008d0d8:	91088000 	add	x0, x0, #0x220
ffff00000008d0dc:	b9404800 	ldr	w0, [x0, #72]
ffff00000008d0e0:	53027c01 	lsr	w1, w0, #2
ffff00000008d0e4:	b9402fe0 	ldr	w0, [sp, #44]
ffff00000008d0e8:	6b00003f 	cmp	w1, w0
ffff00000008d0ec:	54fffd68 	b.hi	ffff00000008d098 <video_clear_screen+0x68>  // b.pmore
ffff00000008d0f0:	14000050 	b	ffff00000008d230 <video_clear_screen+0x200>
ffff00000008d0f4:	b0000020 	adrp	x0, ffff000000092000 <process_table+0x2028>
ffff00000008d0f8:	91088000 	add	x0, x0, #0x220
ffff00000008d0fc:	b9403400 	ldr	w0, [x0, #52]
ffff00000008d100:	7100201f 	cmp	w0, #0x8
ffff00000008d104:	54000961 	b.ne	ffff00000008d230 <video_clear_screen+0x200>  // b.any
ffff00000008d108:	b0000020 	adrp	x0, ffff000000092000 <process_table+0x2028>
ffff00000008d10c:	91088000 	add	x0, x0, #0x220
ffff00000008d110:	b9404400 	ldr	w0, [x0, #68]
ffff00000008d114:	32020000 	orr	w0, w0, #0x40000000
ffff00000008d118:	2a0003e0 	mov	w0, w0
ffff00000008d11c:	92407401 	and	x1, x0, #0x3fffffff
ffff00000008d120:	d2ffffe0 	mov	x0, #0xffff000000000000    	// #-281474976710656
ffff00000008d124:	8b000020 	add	x0, x1, x0
ffff00000008d128:	f90013e0 	str	x0, [sp, #32]
ffff00000008d12c:	b9002bff 	str	wzr, [sp, #40]
ffff00000008d130:	14000010 	b	ffff00000008d170 <video_clear_screen+0x140>
ffff00000008d134:	b0000020 	adrp	x0, ffff000000092000 <process_table+0x2028>
ffff00000008d138:	910a6000 	add	x0, x0, #0x298
ffff00000008d13c:	f9400001 	ldr	x1, [x0]
ffff00000008d140:	b9802be0 	ldrsw	x0, [sp, #40]
ffff00000008d144:	d37ef400 	lsl	x0, x0, #2
ffff00000008d148:	8b000021 	add	x1, x1, x0
ffff00000008d14c:	b9802be0 	ldrsw	x0, [sp, #40]
ffff00000008d150:	d37ef400 	lsl	x0, x0, #2
ffff00000008d154:	f94013e2 	ldr	x2, [sp, #32]
ffff00000008d158:	8b000040 	add	x0, x2, x0
ffff00000008d15c:	b9400021 	ldr	w1, [x1]
ffff00000008d160:	b9000001 	str	w1, [x0]
ffff00000008d164:	b9402be0 	ldr	w0, [sp, #40]
ffff00000008d168:	11000400 	add	w0, w0, #0x1
ffff00000008d16c:	b9002be0 	str	w0, [sp, #40]
ffff00000008d170:	b0000020 	adrp	x0, ffff000000092000 <process_table+0x2028>
ffff00000008d174:	91088000 	add	x0, x0, #0x220
ffff00000008d178:	b9404800 	ldr	w0, [x0, #72]
ffff00000008d17c:	53027c01 	lsr	w1, w0, #2
ffff00000008d180:	b9402be0 	ldr	w0, [sp, #40]
ffff00000008d184:	6b00003f 	cmp	w1, w0
ffff00000008d188:	54fffd68 	b.hi	ffff00000008d134 <video_clear_screen+0x104>  // b.pmore
ffff00000008d18c:	14000029 	b	ffff00000008d230 <video_clear_screen+0x200>
ffff00000008d190:	b0000020 	adrp	x0, ffff000000092000 <process_table+0x2028>
ffff00000008d194:	91088000 	add	x0, x0, #0x220
ffff00000008d198:	b9403400 	ldr	w0, [x0, #52]
ffff00000008d19c:	7100801f 	cmp	w0, #0x20
ffff00000008d1a0:	54000201 	b.ne	ffff00000008d1e0 <video_clear_screen+0x1b0>  // b.any
ffff00000008d1a4:	b0000020 	adrp	x0, ffff000000092000 <process_table+0x2028>
ffff00000008d1a8:	910a2000 	add	x0, x0, #0x288
ffff00000008d1ac:	f9400000 	ldr	x0, [x0]
ffff00000008d1b0:	92407400 	and	x0, x0, #0x3fffffff
ffff00000008d1b4:	aa0003e3 	mov	x3, x0
ffff00000008d1b8:	b0000020 	adrp	x0, ffff000000092000 <process_table+0x2028>
ffff00000008d1bc:	910a4000 	add	x0, x0, #0x290
ffff00000008d1c0:	f9400001 	ldr	x1, [x0]
ffff00000008d1c4:	b0000020 	adrp	x0, ffff000000092000 <process_table+0x2028>
ffff00000008d1c8:	91088000 	add	x0, x0, #0x220
ffff00000008d1cc:	b9404800 	ldr	w0, [x0, #72]
ffff00000008d1d0:	2a0003e2 	mov	w2, w0
ffff00000008d1d4:	aa0303e0 	mov	x0, x3
ffff00000008d1d8:	97fffebe 	bl	ffff00000008ccd0 <do_dma>
ffff00000008d1dc:	14000014 	b	ffff00000008d22c <video_clear_screen+0x1fc>
ffff00000008d1e0:	b0000020 	adrp	x0, ffff000000092000 <process_table+0x2028>
ffff00000008d1e4:	91088000 	add	x0, x0, #0x220
ffff00000008d1e8:	b9403400 	ldr	w0, [x0, #52]
ffff00000008d1ec:	7100201f 	cmp	w0, #0x8
ffff00000008d1f0:	540001e1 	b.ne	ffff00000008d22c <video_clear_screen+0x1fc>  // b.any
ffff00000008d1f4:	b0000020 	adrp	x0, ffff000000092000 <process_table+0x2028>
ffff00000008d1f8:	910a2000 	add	x0, x0, #0x288
ffff00000008d1fc:	f9400000 	ldr	x0, [x0]
ffff00000008d200:	92407400 	and	x0, x0, #0x3fffffff
ffff00000008d204:	aa0003e3 	mov	x3, x0
ffff00000008d208:	b0000020 	adrp	x0, ffff000000092000 <process_table+0x2028>
ffff00000008d20c:	910a6000 	add	x0, x0, #0x298
ffff00000008d210:	f9400001 	ldr	x1, [x0]
ffff00000008d214:	b0000020 	adrp	x0, ffff000000092000 <process_table+0x2028>
ffff00000008d218:	91088000 	add	x0, x0, #0x220
ffff00000008d21c:	b9404800 	ldr	w0, [x0, #72]
ffff00000008d220:	2a0003e2 	mov	w2, w0
ffff00000008d224:	aa0303e0 	mov	x0, x3
ffff00000008d228:	97fffeaa 	bl	ffff00000008ccd0 <do_dma>
ffff00000008d22c:	97fffedf 	bl	ffff00000008cda8 <video_dma>
ffff00000008d230:	d503201f 	nop
ffff00000008d234:	a8c37bfd 	ldp	x29, x30, [sp], #48
ffff00000008d238:	d65f03c0 	ret

ffff00000008d23c <video_draw_pixel>:
ffff00000008d23c:	d100c3ff 	sub	sp, sp, #0x30
ffff00000008d240:	b9000fe0 	str	w0, [sp, #12]
ffff00000008d244:	b9000be1 	str	w1, [sp, #8]
ffff00000008d248:	b90007e2 	str	w2, [sp, #4]
ffff00000008d24c:	b0000020 	adrp	x0, ffff000000092000 <process_table+0x2028>
ffff00000008d250:	91088000 	add	x0, x0, #0x220
ffff00000008d254:	b9403400 	ldr	w0, [x0, #52]
ffff00000008d258:	53037c01 	lsr	w1, w0, #3
ffff00000008d25c:	b9400fe0 	ldr	w0, [sp, #12]
ffff00000008d260:	1b007c21 	mul	w1, w1, w0
ffff00000008d264:	b0000020 	adrp	x0, ffff000000092000 <process_table+0x2028>
ffff00000008d268:	91088000 	add	x0, x0, #0x220
ffff00000008d26c:	b9405802 	ldr	w2, [x0, #88]
ffff00000008d270:	b9400be0 	ldr	w0, [sp, #8]
ffff00000008d274:	1b007c40 	mul	w0, w2, w0
ffff00000008d278:	0b000020 	add	w0, w1, w0
ffff00000008d27c:	b9002fe0 	str	w0, [sp, #44]
ffff00000008d280:	b0000020 	adrp	x0, ffff000000092000 <process_table+0x2028>
ffff00000008d284:	91088000 	add	x0, x0, #0x220
ffff00000008d288:	b9403400 	ldr	w0, [x0, #52]
ffff00000008d28c:	7100801f 	cmp	w0, #0x20
ffff00000008d290:	540003e1 	b.ne	ffff00000008d30c <video_draw_pixel+0xd0>  // b.any
ffff00000008d294:	b0000020 	adrp	x0, ffff000000092000 <process_table+0x2028>
ffff00000008d298:	910a8000 	add	x0, x0, #0x2a0
ffff00000008d29c:	39400000 	ldrb	w0, [x0]
ffff00000008d2a0:	52000000 	eor	w0, w0, #0x1
ffff00000008d2a4:	12001c00 	and	w0, w0, #0xff
ffff00000008d2a8:	12000000 	and	w0, w0, #0x1
ffff00000008d2ac:	7100001f 	cmp	w0, #0x0
ffff00000008d2b0:	54000140 	b.eq	ffff00000008d2d8 <video_draw_pixel+0x9c>  // b.none
ffff00000008d2b4:	b0000020 	adrp	x0, ffff000000092000 <process_table+0x2028>
ffff00000008d2b8:	91088000 	add	x0, x0, #0x220
ffff00000008d2bc:	b9404400 	ldr	w0, [x0, #68]
ffff00000008d2c0:	32020000 	orr	w0, w0, #0x40000000
ffff00000008d2c4:	2a0003e0 	mov	w0, w0
ffff00000008d2c8:	92407401 	and	x1, x0, #0x3fffffff
ffff00000008d2cc:	d2ffffe0 	mov	x0, #0xffff000000000000    	// #-281474976710656
ffff00000008d2d0:	8b000020 	add	x0, x1, x0
ffff00000008d2d4:	14000004 	b	ffff00000008d2e4 <video_draw_pixel+0xa8>
ffff00000008d2d8:	b0000020 	adrp	x0, ffff000000092000 <process_table+0x2028>
ffff00000008d2dc:	910a2000 	add	x0, x0, #0x288
ffff00000008d2e0:	f9400000 	ldr	x0, [x0]
ffff00000008d2e4:	f9000fe0 	str	x0, [sp, #24]
ffff00000008d2e8:	b9402fe0 	ldr	w0, [sp, #44]
ffff00000008d2ec:	53027c00 	lsr	w0, w0, #2
ffff00000008d2f0:	2a0003e0 	mov	w0, w0
ffff00000008d2f4:	d37ef400 	lsl	x0, x0, #2
ffff00000008d2f8:	f9400fe1 	ldr	x1, [sp, #24]
ffff00000008d2fc:	8b000020 	add	x0, x1, x0
ffff00000008d300:	b94007e1 	ldr	w1, [sp, #4]
ffff00000008d304:	b9000001 	str	w1, [x0]
ffff00000008d308:	1400003f 	b	ffff00000008d404 <video_draw_pixel+0x1c8>
ffff00000008d30c:	b0000020 	adrp	x0, ffff000000092000 <process_table+0x2028>
ffff00000008d310:	91088000 	add	x0, x0, #0x220
ffff00000008d314:	b9403400 	ldr	w0, [x0, #52]
ffff00000008d318:	7100401f 	cmp	w0, #0x10
ffff00000008d31c:	54000401 	b.ne	ffff00000008d39c <video_draw_pixel+0x160>  // b.any
ffff00000008d320:	b0000020 	adrp	x0, ffff000000092000 <process_table+0x2028>
ffff00000008d324:	910a8000 	add	x0, x0, #0x2a0
ffff00000008d328:	39400000 	ldrb	w0, [x0]
ffff00000008d32c:	52000000 	eor	w0, w0, #0x1
ffff00000008d330:	12001c00 	and	w0, w0, #0xff
ffff00000008d334:	12000000 	and	w0, w0, #0x1
ffff00000008d338:	7100001f 	cmp	w0, #0x0
ffff00000008d33c:	54000140 	b.eq	ffff00000008d364 <video_draw_pixel+0x128>  // b.none
ffff00000008d340:	b0000020 	adrp	x0, ffff000000092000 <process_table+0x2028>
ffff00000008d344:	91088000 	add	x0, x0, #0x220
ffff00000008d348:	b9404400 	ldr	w0, [x0, #68]
ffff00000008d34c:	32020000 	orr	w0, w0, #0x40000000
ffff00000008d350:	2a0003e0 	mov	w0, w0
ffff00000008d354:	92407401 	and	x1, x0, #0x3fffffff
ffff00000008d358:	d2ffffe0 	mov	x0, #0xffff000000000000    	// #-281474976710656
ffff00000008d35c:	8b000020 	add	x0, x1, x0
ffff00000008d360:	14000004 	b	ffff00000008d370 <video_draw_pixel+0x134>
ffff00000008d364:	b0000020 	adrp	x0, ffff000000092000 <process_table+0x2028>
ffff00000008d368:	910a2000 	add	x0, x0, #0x288
ffff00000008d36c:	f9400000 	ldr	x0, [x0]
ffff00000008d370:	f90013e0 	str	x0, [sp, #32]
ffff00000008d374:	b9402fe0 	ldr	w0, [sp, #44]
ffff00000008d378:	53017c00 	lsr	w0, w0, #1
ffff00000008d37c:	2a0003e0 	mov	w0, w0
ffff00000008d380:	d37ff800 	lsl	x0, x0, #1
ffff00000008d384:	f94013e1 	ldr	x1, [sp, #32]
ffff00000008d388:	8b000020 	add	x0, x1, x0
ffff00000008d38c:	b94007e1 	ldr	w1, [sp, #4]
ffff00000008d390:	12003c21 	and	w1, w1, #0xffff
ffff00000008d394:	79000001 	strh	w1, [x0]
ffff00000008d398:	1400001b 	b	ffff00000008d404 <video_draw_pixel+0x1c8>
ffff00000008d39c:	b0000020 	adrp	x0, ffff000000092000 <process_table+0x2028>
ffff00000008d3a0:	910a8000 	add	x0, x0, #0x2a0
ffff00000008d3a4:	39400000 	ldrb	w0, [x0]
ffff00000008d3a8:	12000000 	and	w0, w0, #0x1
ffff00000008d3ac:	7100001f 	cmp	w0, #0x0
ffff00000008d3b0:	540000a0 	b.eq	ffff00000008d3c4 <video_draw_pixel+0x188>  // b.none
ffff00000008d3b4:	b0000020 	adrp	x0, ffff000000092000 <process_table+0x2028>
ffff00000008d3b8:	910a2000 	add	x0, x0, #0x288
ffff00000008d3bc:	f9400000 	ldr	x0, [x0]
ffff00000008d3c0:	14000009 	b	ffff00000008d3e4 <video_draw_pixel+0x1a8>
ffff00000008d3c4:	b0000020 	adrp	x0, ffff000000092000 <process_table+0x2028>
ffff00000008d3c8:	91088000 	add	x0, x0, #0x220
ffff00000008d3cc:	b9404400 	ldr	w0, [x0, #68]
ffff00000008d3d0:	32020000 	orr	w0, w0, #0x40000000
ffff00000008d3d4:	2a0003e0 	mov	w0, w0
ffff00000008d3d8:	92407401 	and	x1, x0, #0x3fffffff
ffff00000008d3dc:	d2ffffe0 	mov	x0, #0xffff000000000000    	// #-281474976710656
ffff00000008d3e0:	8b000020 	add	x0, x1, x0
ffff00000008d3e4:	b9402fe1 	ldr	w1, [sp, #44]
ffff00000008d3e8:	11000422 	add	w2, w1, #0x1
ffff00000008d3ec:	b9002fe2 	str	w2, [sp, #44]
ffff00000008d3f0:	2a0103e1 	mov	w1, w1
ffff00000008d3f4:	8b010000 	add	x0, x0, x1
ffff00000008d3f8:	b94007e1 	ldr	w1, [sp, #4]
ffff00000008d3fc:	12001c21 	and	w1, w1, #0xff
ffff00000008d400:	39000001 	strb	w1, [x0]
ffff00000008d404:	d503201f 	nop
ffff00000008d408:	9100c3ff 	add	sp, sp, #0x30
ffff00000008d40c:	d65f03c0 	ret

ffff00000008d410 <video_draw_char>:
ffff00000008d410:	a9bc7bfd 	stp	x29, x30, [sp, #-64]!
ffff00000008d414:	910003fd 	mov	x29, sp
ffff00000008d418:	39007fe0 	strb	w0, [sp, #31]
ffff00000008d41c:	b9001be1 	str	w1, [sp, #24]
ffff00000008d420:	b90017e2 	str	w2, [sp, #20]
ffff00000008d424:	12800000 	mov	w0, #0xffffffff            	// #-1
ffff00000008d428:	b9003fe0 	str	w0, [sp, #60]
ffff00000008d42c:	52814480 	mov	w0, #0xa24                 	// #2596
ffff00000008d430:	72bfe600 	movk	w0, #0xff30, lsl #16
ffff00000008d434:	b9003be0 	str	w0, [sp, #56]
ffff00000008d438:	b0000020 	adrp	x0, ffff000000092000 <process_table+0x2028>
ffff00000008d43c:	91088000 	add	x0, x0, #0x220
ffff00000008d440:	b9403400 	ldr	w0, [x0, #52]
ffff00000008d444:	7100201f 	cmp	w0, #0x8
ffff00000008d448:	540000a1 	b.ne	ffff00000008d45c <video_draw_char+0x4c>  // b.any
ffff00000008d44c:	52800040 	mov	w0, #0x2                   	// #2
ffff00000008d450:	b9003fe0 	str	w0, [sp, #60]
ffff00000008d454:	52800020 	mov	w0, #0x1                   	// #1
ffff00000008d458:	b9003be0 	str	w0, [sp, #56]
ffff00000008d45c:	b90037ff 	str	wzr, [sp, #52]
ffff00000008d460:	14000025 	b	ffff00000008d4f4 <video_draw_char+0xe4>
ffff00000008d464:	b90033ff 	str	wzr, [sp, #48]
ffff00000008d468:	1400001b 	b	ffff00000008d4d4 <video_draw_char+0xc4>
ffff00000008d46c:	b94033e0 	ldr	w0, [sp, #48]
ffff00000008d470:	b94037e1 	ldr	w1, [sp, #52]
ffff00000008d474:	2a0103e2 	mov	w2, w1
ffff00000008d478:	2a0003e1 	mov	w1, w0
ffff00000008d47c:	39407fe0 	ldrb	w0, [sp, #31]
ffff00000008d480:	940000fd 	bl	ffff00000008d874 <font_get_pixel>
ffff00000008d484:	3900bfe0 	strb	w0, [sp, #47]
ffff00000008d488:	b94033e1 	ldr	w1, [sp, #48]
ffff00000008d48c:	b9401be0 	ldr	w0, [sp, #24]
ffff00000008d490:	0b000023 	add	w3, w1, w0
ffff00000008d494:	b94037e1 	ldr	w1, [sp, #52]
ffff00000008d498:	b94017e0 	ldr	w0, [sp, #20]
ffff00000008d49c:	0b000021 	add	w1, w1, w0
ffff00000008d4a0:	3940bfe0 	ldrb	w0, [sp, #47]
ffff00000008d4a4:	12000000 	and	w0, w0, #0x1
ffff00000008d4a8:	7100001f 	cmp	w0, #0x0
ffff00000008d4ac:	54000060 	b.eq	ffff00000008d4b8 <video_draw_char+0xa8>  // b.none
ffff00000008d4b0:	b9403fe0 	ldr	w0, [sp, #60]
ffff00000008d4b4:	14000002 	b	ffff00000008d4bc <video_draw_char+0xac>
ffff00000008d4b8:	b9403be0 	ldr	w0, [sp, #56]
ffff00000008d4bc:	2a0003e2 	mov	w2, w0
ffff00000008d4c0:	2a0303e0 	mov	w0, w3
ffff00000008d4c4:	97ffff5e 	bl	ffff00000008d23c <video_draw_pixel>
ffff00000008d4c8:	b94033e0 	ldr	w0, [sp, #48]
ffff00000008d4cc:	11000400 	add	w0, w0, #0x1
ffff00000008d4d0:	b90033e0 	str	w0, [sp, #48]
ffff00000008d4d4:	940000e6 	bl	ffff00000008d86c <font_get_width>
ffff00000008d4d8:	2a0003e1 	mov	w1, w0
ffff00000008d4dc:	b94033e0 	ldr	w0, [sp, #48]
ffff00000008d4e0:	6b00003f 	cmp	w1, w0
ffff00000008d4e4:	54fffc48 	b.hi	ffff00000008d46c <video_draw_char+0x5c>  // b.pmore
ffff00000008d4e8:	b94037e0 	ldr	w0, [sp, #52]
ffff00000008d4ec:	11000400 	add	w0, w0, #0x1
ffff00000008d4f0:	b90037e0 	str	w0, [sp, #52]
ffff00000008d4f4:	940000da 	bl	ffff00000008d85c <font_get_height>
ffff00000008d4f8:	2a0003e1 	mov	w1, w0
ffff00000008d4fc:	b94037e0 	ldr	w0, [sp, #52]
ffff00000008d500:	6b00003f 	cmp	w1, w0
ffff00000008d504:	54fffb08 	b.hi	ffff00000008d464 <video_draw_char+0x54>  // b.pmore
ffff00000008d508:	d503201f 	nop
ffff00000008d50c:	d503201f 	nop
ffff00000008d510:	a8c47bfd 	ldp	x29, x30, [sp], #64
ffff00000008d514:	d65f03c0 	ret

ffff00000008d518 <video_draw_string>:
ffff00000008d518:	a9bd7bfd 	stp	x29, x30, [sp, #-48]!
ffff00000008d51c:	910003fd 	mov	x29, sp
ffff00000008d520:	f9000fe0 	str	x0, [sp, #24]
ffff00000008d524:	b90017e1 	str	w1, [sp, #20]
ffff00000008d528:	b90013e2 	str	w2, [sp, #16]
ffff00000008d52c:	b9002fff 	str	wzr, [sp, #44]
ffff00000008d530:	14000010 	b	ffff00000008d570 <video_draw_string+0x58>
ffff00000008d534:	b9802fe0 	ldrsw	x0, [sp, #44]
ffff00000008d538:	f9400fe1 	ldr	x1, [sp, #24]
ffff00000008d53c:	8b000020 	add	x0, x1, x0
ffff00000008d540:	39400000 	ldrb	w0, [x0]
ffff00000008d544:	b94013e2 	ldr	w2, [sp, #16]
ffff00000008d548:	b94017e1 	ldr	w1, [sp, #20]
ffff00000008d54c:	97ffffb1 	bl	ffff00000008d410 <video_draw_char>
ffff00000008d550:	940000c7 	bl	ffff00000008d86c <font_get_width>
ffff00000008d554:	11000800 	add	w0, w0, #0x2
ffff00000008d558:	b94017e1 	ldr	w1, [sp, #20]
ffff00000008d55c:	0b000020 	add	w0, w1, w0
ffff00000008d560:	b90017e0 	str	w0, [sp, #20]
ffff00000008d564:	b9402fe0 	ldr	w0, [sp, #44]
ffff00000008d568:	11000400 	add	w0, w0, #0x1
ffff00000008d56c:	b9002fe0 	str	w0, [sp, #44]
ffff00000008d570:	b9802fe0 	ldrsw	x0, [sp, #44]
ffff00000008d574:	f9400fe1 	ldr	x1, [sp, #24]
ffff00000008d578:	8b000020 	add	x0, x1, x0
ffff00000008d57c:	39400000 	ldrb	w0, [x0]
ffff00000008d580:	7100001f 	cmp	w0, #0x0
ffff00000008d584:	54fffd81 	b.ne	ffff00000008d534 <video_draw_string+0x1c>  // b.any
ffff00000008d588:	d503201f 	nop
ffff00000008d58c:	d503201f 	nop
ffff00000008d590:	a8c37bfd 	ldp	x29, x30, [sp], #48
ffff00000008d594:	d65f03c0 	ret

ffff00000008d598 <MBX>:
ffff00000008d598:	d2971000 	mov	x0, #0xb880                	// #47232
ffff00000008d59c:	f2a7e000 	movk	x0, #0x3f00, lsl #16
ffff00000008d5a0:	f2ffffe0 	movk	x0, #0xffff, lsl #48
ffff00000008d5a4:	d65f03c0 	ret

ffff00000008d5a8 <mailbox_write>:
ffff00000008d5a8:	a9bd7bfd 	stp	x29, x30, [sp, #-48]!
ffff00000008d5ac:	910003fd 	mov	x29, sp
ffff00000008d5b0:	a90153f3 	stp	x19, x20, [sp, #16]
ffff00000008d5b4:	3900bfe0 	strb	w0, [sp, #47]
ffff00000008d5b8:	b9002be1 	str	w1, [sp, #40]
ffff00000008d5bc:	d503201f 	nop
ffff00000008d5c0:	97fffff6 	bl	ffff00000008d598 <MBX>
ffff00000008d5c4:	b9401800 	ldr	w0, [x0, #24]
ffff00000008d5c8:	7100001f 	cmp	w0, #0x0
ffff00000008d5cc:	54ffffab 	b.lt	ffff00000008d5c0 <mailbox_write+0x18>  // b.tstop
ffff00000008d5d0:	b9402be0 	ldr	w0, [sp, #40]
ffff00000008d5d4:	121c6c14 	and	w20, w0, #0xfffffff0
ffff00000008d5d8:	3940bfe0 	ldrb	w0, [sp, #47]
ffff00000008d5dc:	12000c13 	and	w19, w0, #0xf
ffff00000008d5e0:	97ffffee 	bl	ffff00000008d598 <MBX>
ffff00000008d5e4:	aa0003e1 	mov	x1, x0
ffff00000008d5e8:	2a130280 	orr	w0, w20, w19
ffff00000008d5ec:	b9002020 	str	w0, [x1, #32]
ffff00000008d5f0:	d503201f 	nop
ffff00000008d5f4:	a94153f3 	ldp	x19, x20, [sp, #16]
ffff00000008d5f8:	a8c37bfd 	ldp	x29, x30, [sp], #48
ffff00000008d5fc:	d65f03c0 	ret

ffff00000008d600 <mailbox_read>:
ffff00000008d600:	a9bd7bfd 	stp	x29, x30, [sp, #-48]!
ffff00000008d604:	910003fd 	mov	x29, sp
ffff00000008d608:	39007fe0 	strb	w0, [sp, #31]
ffff00000008d60c:	d503201f 	nop
ffff00000008d610:	97ffffe2 	bl	ffff00000008d598 <MBX>
ffff00000008d614:	b9401800 	ldr	w0, [x0, #24]
ffff00000008d618:	12020000 	and	w0, w0, #0x40000000
ffff00000008d61c:	7100001f 	cmp	w0, #0x0
ffff00000008d620:	54ffff81 	b.ne	ffff00000008d610 <mailbox_read+0x10>  // b.any
ffff00000008d624:	97ffffdd 	bl	ffff00000008d598 <MBX>
ffff00000008d628:	b9400000 	ldr	w0, [x0]
ffff00000008d62c:	b9002fe0 	str	w0, [sp, #44]
ffff00000008d630:	b9402fe0 	ldr	w0, [sp, #44]
ffff00000008d634:	12001c00 	and	w0, w0, #0xff
ffff00000008d638:	12000c00 	and	w0, w0, #0xf
ffff00000008d63c:	3900afe0 	strb	w0, [sp, #43]
ffff00000008d640:	3940afe1 	ldrb	w1, [sp, #43]
ffff00000008d644:	39407fe0 	ldrb	w0, [sp, #31]
ffff00000008d648:	6b00003f 	cmp	w1, w0
ffff00000008d64c:	54fffe01 	b.ne	ffff00000008d60c <mailbox_read+0xc>  // b.any
ffff00000008d650:	b9402fe0 	ldr	w0, [sp, #44]
ffff00000008d654:	121c6c00 	and	w0, w0, #0xfffffff0
ffff00000008d658:	a8c37bfd 	ldp	x29, x30, [sp], #48
ffff00000008d65c:	d65f03c0 	ret

ffff00000008d660 <mailbox_process>:
ffff00000008d660:	a9bc7bfd 	stp	x29, x30, [sp, #-64]!
ffff00000008d664:	910003fd 	mov	x29, sp
ffff00000008d668:	f9000fe0 	str	x0, [sp, #24]
ffff00000008d66c:	b90017e1 	str	w1, [sp, #20]
ffff00000008d670:	b94017e0 	ldr	w0, [sp, #20]
ffff00000008d674:	11003000 	add	w0, w0, #0xc
ffff00000008d678:	b9003fe0 	str	w0, [sp, #60]
ffff00000008d67c:	b94017e2 	ldr	w2, [sp, #20]
ffff00000008d680:	f9400fe1 	ldr	x1, [sp, #24]
ffff00000008d684:	b0000020 	adrp	x0, ffff000000092000 <process_table+0x2028>
ffff00000008d688:	910ae000 	add	x0, x0, #0x2b8
ffff00000008d68c:	97ffcaac 	bl	ffff00000008013c <memcpy>
ffff00000008d690:	b0000020 	adrp	x0, ffff000000092000 <process_table+0x2028>
ffff00000008d694:	910ac000 	add	x0, x0, #0x2b0
ffff00000008d698:	f9001be0 	str	x0, [sp, #48]
ffff00000008d69c:	b9403fe1 	ldr	w1, [sp, #60]
ffff00000008d6a0:	f9401be0 	ldr	x0, [sp, #48]
ffff00000008d6a4:	b9000001 	str	w1, [x0]
ffff00000008d6a8:	f9401be0 	ldr	x0, [sp, #48]
ffff00000008d6ac:	b900041f 	str	wzr, [x0, #4]
ffff00000008d6b0:	b94017e0 	ldr	w0, [sp, #20]
ffff00000008d6b4:	11003000 	add	w0, w0, #0xc
ffff00000008d6b8:	53027c00 	lsr	w0, w0, #2
ffff00000008d6bc:	51000401 	sub	w1, w0, #0x1
ffff00000008d6c0:	b0000020 	adrp	x0, ffff000000092000 <process_table+0x2028>
ffff00000008d6c4:	910ac000 	add	x0, x0, #0x2b0
ffff00000008d6c8:	2a0103e1 	mov	w1, w1
ffff00000008d6cc:	b821781f 	str	wzr, [x0, x1, lsl #2]
ffff00000008d6d0:	b0000020 	adrp	x0, ffff000000092000 <process_table+0x2028>
ffff00000008d6d4:	910ac000 	add	x0, x0, #0x2b0
ffff00000008d6d8:	2a0003e1 	mov	w1, w0
ffff00000008d6dc:	52800100 	mov	w0, #0x8                   	// #8
ffff00000008d6e0:	97ffffb2 	bl	ffff00000008d5a8 <mailbox_write>
ffff00000008d6e4:	52800100 	mov	w0, #0x8                   	// #8
ffff00000008d6e8:	97ffffc6 	bl	ffff00000008d600 <mailbox_read>
ffff00000008d6ec:	b9002fe0 	str	w0, [sp, #44]
ffff00000008d6f0:	b0000020 	adrp	x0, ffff000000092000 <process_table+0x2028>
ffff00000008d6f4:	910ae000 	add	x0, x0, #0x2b8
ffff00000008d6f8:	b94017e2 	ldr	w2, [sp, #20]
ffff00000008d6fc:	aa0003e1 	mov	x1, x0
ffff00000008d700:	f9400fe0 	ldr	x0, [sp, #24]
ffff00000008d704:	97ffca8e 	bl	ffff00000008013c <memcpy>
ffff00000008d708:	52800020 	mov	w0, #0x1                   	// #1
ffff00000008d70c:	a8c47bfd 	ldp	x29, x30, [sp], #64
ffff00000008d710:	d65f03c0 	ret

ffff00000008d714 <mailbox_generic_command>:
ffff00000008d714:	a9bc7bfd 	stp	x29, x30, [sp, #-64]!
ffff00000008d718:	910003fd 	mov	x29, sp
ffff00000008d71c:	b9001fe0 	str	w0, [sp, #28]
ffff00000008d720:	b9001be1 	str	w1, [sp, #24]
ffff00000008d724:	f9000be2 	str	x2, [sp, #16]
ffff00000008d728:	b9401fe0 	ldr	w0, [sp, #28]
ffff00000008d72c:	b9002be0 	str	w0, [sp, #40]
ffff00000008d730:	b90033ff 	str	wzr, [sp, #48]
ffff00000008d734:	52800100 	mov	w0, #0x8                   	// #8
ffff00000008d738:	b9002fe0 	str	w0, [sp, #44]
ffff00000008d73c:	b9401be0 	ldr	w0, [sp, #24]
ffff00000008d740:	b90037e0 	str	w0, [sp, #52]
ffff00000008d744:	f9400be0 	ldr	x0, [sp, #16]
ffff00000008d748:	b9400000 	ldr	w0, [x0]
ffff00000008d74c:	b9003be0 	str	w0, [sp, #56]
ffff00000008d750:	9100a3e0 	add	x0, sp, #0x28
ffff00000008d754:	52800281 	mov	w1, #0x14                  	// #20
ffff00000008d758:	97ffffc2 	bl	ffff00000008d660 <mailbox_process>
ffff00000008d75c:	12001c00 	and	w0, w0, #0xff
ffff00000008d760:	52000000 	eor	w0, w0, #0x1
ffff00000008d764:	12001c00 	and	w0, w0, #0xff
ffff00000008d768:	12000000 	and	w0, w0, #0x1
ffff00000008d76c:	7100001f 	cmp	w0, #0x0
ffff00000008d770:	540000e0 	b.eq	ffff00000008d78c <mailbox_generic_command+0x78>  // b.none
ffff00000008d774:	b9401fe1 	ldr	w1, [sp, #28]
ffff00000008d778:	b0000000 	adrp	x0, ffff00000008e000 <_fs_start+0x294>
ffff00000008d77c:	9101c000 	add	x0, x0, #0x70
ffff00000008d780:	97ffcbba 	bl	ffff000000080668 <printk>
ffff00000008d784:	52800000 	mov	w0, #0x0                   	// #0
ffff00000008d788:	14000005 	b	ffff00000008d79c <mailbox_generic_command+0x88>
ffff00000008d78c:	b9403be1 	ldr	w1, [sp, #56]
ffff00000008d790:	f9400be0 	ldr	x0, [sp, #16]
ffff00000008d794:	b9000001 	str	w1, [x0]
ffff00000008d798:	52800020 	mov	w0, #0x1                   	// #1
ffff00000008d79c:	a8c47bfd 	ldp	x29, x30, [sp], #64
ffff00000008d7a0:	d65f03c0 	ret

ffff00000008d7a4 <mailbox_clock_rate>:
ffff00000008d7a4:	a9bc7bfd 	stp	x29, x30, [sp, #-64]!
ffff00000008d7a8:	910003fd 	mov	x29, sp
ffff00000008d7ac:	b9001fe0 	str	w0, [sp, #28]
ffff00000008d7b0:	52800040 	mov	w0, #0x2                   	// #2
ffff00000008d7b4:	72a00060 	movk	w0, #0x3, lsl #16
ffff00000008d7b8:	b9002be0 	str	w0, [sp, #40]
ffff00000008d7bc:	b90033ff 	str	wzr, [sp, #48]
ffff00000008d7c0:	52800100 	mov	w0, #0x8                   	// #8
ffff00000008d7c4:	b9002fe0 	str	w0, [sp, #44]
ffff00000008d7c8:	b9401fe0 	ldr	w0, [sp, #28]
ffff00000008d7cc:	b90037e0 	str	w0, [sp, #52]
ffff00000008d7d0:	9100a3e0 	add	x0, sp, #0x28
ffff00000008d7d4:	52800281 	mov	w1, #0x14                  	// #20
ffff00000008d7d8:	97ffffa2 	bl	ffff00000008d660 <mailbox_process>
ffff00000008d7dc:	b9403be0 	ldr	w0, [sp, #56]
ffff00000008d7e0:	a8c47bfd 	ldp	x29, x30, [sp], #64
ffff00000008d7e4:	d65f03c0 	ret

ffff00000008d7e8 <mailbox_power_check>:
ffff00000008d7e8:	a9bc7bfd 	stp	x29, x30, [sp, #-64]!
ffff00000008d7ec:	910003fd 	mov	x29, sp
ffff00000008d7f0:	b9001fe0 	str	w0, [sp, #28]
ffff00000008d7f4:	52800600 	mov	w0, #0x30                  	// #48
ffff00000008d7f8:	72a00060 	movk	w0, #0x3, lsl #16
ffff00000008d7fc:	b9002be0 	str	w0, [sp, #40]
ffff00000008d800:	b90033ff 	str	wzr, [sp, #48]
ffff00000008d804:	52800100 	mov	w0, #0x8                   	// #8
ffff00000008d808:	b9002fe0 	str	w0, [sp, #44]
ffff00000008d80c:	b9401fe0 	ldr	w0, [sp, #28]
ffff00000008d810:	b90037e0 	str	w0, [sp, #52]
ffff00000008d814:	12800000 	mov	w0, #0xffffffff            	// #-1
ffff00000008d818:	b9003be0 	str	w0, [sp, #56]
ffff00000008d81c:	9100a3e0 	add	x0, sp, #0x28
ffff00000008d820:	52800281 	mov	w1, #0x14                  	// #20
ffff00000008d824:	97ffff8f 	bl	ffff00000008d660 <mailbox_process>
ffff00000008d828:	b9403be0 	ldr	w0, [sp, #56]
ffff00000008d82c:	7100001f 	cmp	w0, #0x0
ffff00000008d830:	540000c0 	b.eq	ffff00000008d848 <mailbox_power_check+0x60>  // b.none
ffff00000008d834:	b9403be0 	ldr	w0, [sp, #56]
ffff00000008d838:	3100041f 	cmn	w0, #0x1
ffff00000008d83c:	54000060 	b.eq	ffff00000008d848 <mailbox_power_check+0x60>  // b.none
ffff00000008d840:	52800020 	mov	w0, #0x1                   	// #1
ffff00000008d844:	14000002 	b	ffff00000008d84c <mailbox_power_check+0x64>
ffff00000008d848:	52800000 	mov	w0, #0x0                   	// #0
ffff00000008d84c:	12000000 	and	w0, w0, #0x1
ffff00000008d850:	12001c00 	and	w0, w0, #0xff
ffff00000008d854:	a8c47bfd 	ldp	x29, x30, [sp], #64
ffff00000008d858:	d65f03c0 	ret

ffff00000008d85c <font_get_height>:
ffff00000008d85c:	52800201 	mov	w1, #0x10                  	// #16
ffff00000008d860:	52800060 	mov	w0, #0x3                   	// #3
ffff00000008d864:	0b000020 	add	w0, w1, w0
ffff00000008d868:	d65f03c0 	ret

ffff00000008d86c <font_get_width>:
ffff00000008d86c:	52800100 	mov	w0, #0x8                   	// #8
ffff00000008d870:	d65f03c0 	ret

ffff00000008d874 <font_get_pixel>:
ffff00000008d874:	d10083ff 	sub	sp, sp, #0x20
ffff00000008d878:	39003fe0 	strb	w0, [sp, #15]
ffff00000008d87c:	b9000be1 	str	w1, [sp, #8]
ffff00000008d880:	b90007e2 	str	w2, [sp, #4]
ffff00000008d884:	39403fe0 	ldrb	w0, [sp, #15]
ffff00000008d888:	7100801f 	cmp	w0, #0x20
ffff00000008d88c:	54000068 	b.hi	ffff00000008d898 <font_get_pixel+0x24>  // b.pmore
ffff00000008d890:	52800000 	mov	w0, #0x0                   	// #0
ffff00000008d894:	1400001a 	b	ffff00000008d8fc <font_get_pixel+0x88>
ffff00000008d898:	39403fe0 	ldrb	w0, [sp, #15]
ffff00000008d89c:	51008400 	sub	w0, w0, #0x21
ffff00000008d8a0:	b9001fe0 	str	w0, [sp, #28]
ffff00000008d8a4:	52800200 	mov	w0, #0x10                  	// #16
ffff00000008d8a8:	b94007e1 	ldr	w1, [sp, #4]
ffff00000008d8ac:	6b00003f 	cmp	w1, w0
ffff00000008d8b0:	54000063 	b.cc	ffff00000008d8bc <font_get_pixel+0x48>  // b.lo, b.ul, b.last
ffff00000008d8b4:	52800000 	mov	w0, #0x0                   	// #0
ffff00000008d8b8:	14000011 	b	ffff00000008d8fc <font_get_pixel+0x88>
ffff00000008d8bc:	b0000000 	adrp	x0, ffff00000008e000 <_fs_start+0x294>
ffff00000008d8c0:	91026002 	add	x2, x0, #0x98
ffff00000008d8c4:	b94007e0 	ldr	w0, [sp, #4]
ffff00000008d8c8:	b9401fe1 	ldr	w1, [sp, #28]
ffff00000008d8cc:	d37cec21 	lsl	x1, x1, #4
ffff00000008d8d0:	8b010041 	add	x1, x2, x1
ffff00000008d8d4:	8b000020 	add	x0, x1, x0
ffff00000008d8d8:	39400000 	ldrb	w0, [x0]
ffff00000008d8dc:	2a0003e2 	mov	w2, w0
ffff00000008d8e0:	b9400be0 	ldr	w0, [sp, #8]
ffff00000008d8e4:	52801001 	mov	w1, #0x80                  	// #128
ffff00000008d8e8:	1ac02820 	asr	w0, w1, w0
ffff00000008d8ec:	0a000040 	and	w0, w2, w0
ffff00000008d8f0:	7100001f 	cmp	w0, #0x0
ffff00000008d8f4:	1a9f07e0 	cset	w0, ne	// ne = any
ffff00000008d8f8:	12001c00 	and	w0, w0, #0xff
ffff00000008d8fc:	910083ff 	add	sp, sp, #0x20
ffff00000008d900:	d65f03c0 	ret

ffff00000008d904 <allocate_channel>:
ffff00000008d904:	d10083ff 	sub	sp, sp, #0x20
ffff00000008d908:	b9000fe0 	str	w0, [sp, #12]
ffff00000008d90c:	b9400fe0 	ldr	w0, [sp, #12]
ffff00000008d910:	71003c1f 	cmp	w0, #0xf
ffff00000008d914:	540003e8 	b.hi	ffff00000008d990 <allocate_channel+0x8c>  // b.pmore
ffff00000008d918:	d0000000 	adrp	x0, ffff00000008f000 <font_data+0xf68>
ffff00000008d91c:	913da000 	add	x0, x0, #0xf68
ffff00000008d920:	79400000 	ldrh	w0, [x0]
ffff00000008d924:	2a0003e1 	mov	w1, w0
ffff00000008d928:	b9400fe0 	ldr	w0, [sp, #12]
ffff00000008d92c:	1ac02820 	asr	w0, w1, w0
ffff00000008d930:	12000000 	and	w0, w0, #0x1
ffff00000008d934:	7100001f 	cmp	w0, #0x0
ffff00000008d938:	54000280 	b.eq	ffff00000008d988 <allocate_channel+0x84>  // b.none
ffff00000008d93c:	b9400fe0 	ldr	w0, [sp, #12]
ffff00000008d940:	52800021 	mov	w1, #0x1                   	// #1
ffff00000008d944:	1ac02020 	lsl	w0, w1, w0
ffff00000008d948:	13003c00 	sxth	w0, w0
ffff00000008d94c:	2a2003e0 	mvn	w0, w0
ffff00000008d950:	13003c01 	sxth	w1, w0
ffff00000008d954:	d0000000 	adrp	x0, ffff00000008f000 <font_data+0xf68>
ffff00000008d958:	913da000 	add	x0, x0, #0xf68
ffff00000008d95c:	79400000 	ldrh	w0, [x0]
ffff00000008d960:	13003c00 	sxth	w0, w0
ffff00000008d964:	0a000020 	and	w0, w1, w0
ffff00000008d968:	13003c00 	sxth	w0, w0
ffff00000008d96c:	12003c01 	and	w1, w0, #0xffff
ffff00000008d970:	d0000000 	adrp	x0, ffff00000008f000 <font_data+0xf68>
ffff00000008d974:	913da000 	add	x0, x0, #0xf68
ffff00000008d978:	79000001 	strh	w1, [x0]
ffff00000008d97c:	b9400fe0 	ldr	w0, [sp, #12]
ffff00000008d980:	12003c00 	and	w0, w0, #0xffff
ffff00000008d984:	14000029 	b	ffff00000008da28 <allocate_channel+0x124>
ffff00000008d988:	529fffe0 	mov	w0, #0xffff                	// #65535
ffff00000008d98c:	14000027 	b	ffff00000008da28 <allocate_channel+0x124>
ffff00000008d990:	b9400fe0 	ldr	w0, [sp, #12]
ffff00000008d994:	7102041f 	cmp	w0, #0x81
ffff00000008d998:	54000061 	b.ne	ffff00000008d9a4 <allocate_channel+0xa0>  // b.any
ffff00000008d99c:	528000c0 	mov	w0, #0x6                   	// #6
ffff00000008d9a0:	14000002 	b	ffff00000008d9a8 <allocate_channel+0xa4>
ffff00000008d9a4:	52800180 	mov	w0, #0xc                   	// #12
ffff00000008d9a8:	79003fe0 	strh	w0, [sp, #30]
ffff00000008d9ac:	d0000000 	adrp	x0, ffff00000008f000 <font_data+0xf68>
ffff00000008d9b0:	913da000 	add	x0, x0, #0xf68
ffff00000008d9b4:	79400000 	ldrh	w0, [x0]
ffff00000008d9b8:	2a0003e1 	mov	w1, w0
ffff00000008d9bc:	79403fe0 	ldrh	w0, [sp, #30]
ffff00000008d9c0:	1ac02820 	asr	w0, w1, w0
ffff00000008d9c4:	12000000 	and	w0, w0, #0x1
ffff00000008d9c8:	7100001f 	cmp	w0, #0x0
ffff00000008d9cc:	54000260 	b.eq	ffff00000008da18 <allocate_channel+0x114>  // b.none
ffff00000008d9d0:	79403fe0 	ldrh	w0, [sp, #30]
ffff00000008d9d4:	52800021 	mov	w1, #0x1                   	// #1
ffff00000008d9d8:	1ac02020 	lsl	w0, w1, w0
ffff00000008d9dc:	13003c00 	sxth	w0, w0
ffff00000008d9e0:	2a2003e0 	mvn	w0, w0
ffff00000008d9e4:	13003c01 	sxth	w1, w0
ffff00000008d9e8:	d0000000 	adrp	x0, ffff00000008f000 <font_data+0xf68>
ffff00000008d9ec:	913da000 	add	x0, x0, #0xf68
ffff00000008d9f0:	79400000 	ldrh	w0, [x0]
ffff00000008d9f4:	13003c00 	sxth	w0, w0
ffff00000008d9f8:	0a000020 	and	w0, w1, w0
ffff00000008d9fc:	13003c00 	sxth	w0, w0
ffff00000008da00:	12003c01 	and	w1, w0, #0xffff
ffff00000008da04:	d0000000 	adrp	x0, ffff00000008f000 <font_data+0xf68>
ffff00000008da08:	913da000 	add	x0, x0, #0xf68
ffff00000008da0c:	79000001 	strh	w1, [x0]
ffff00000008da10:	79403fe0 	ldrh	w0, [sp, #30]
ffff00000008da14:	14000005 	b	ffff00000008da28 <allocate_channel+0x124>
ffff00000008da18:	79403fe0 	ldrh	w0, [sp, #30]
ffff00000008da1c:	51000400 	sub	w0, w0, #0x1
ffff00000008da20:	79003fe0 	strh	w0, [sp, #30]
ffff00000008da24:	17ffffe2 	b	ffff00000008d9ac <allocate_channel+0xa8>
ffff00000008da28:	910083ff 	add	sp, sp, #0x20
ffff00000008da2c:	d65f03c0 	ret

ffff00000008da30 <dma_open_channel>:
ffff00000008da30:	a9bd7bfd 	stp	x29, x30, [sp, #-48]!
ffff00000008da34:	910003fd 	mov	x29, sp
ffff00000008da38:	b9001fe0 	str	w0, [sp, #28]
ffff00000008da3c:	b9401fe0 	ldr	w0, [sp, #28]
ffff00000008da40:	97ffffb1 	bl	ffff00000008d904 <allocate_channel>
ffff00000008da44:	12003c00 	and	w0, w0, #0xffff
ffff00000008da48:	b9002fe0 	str	w0, [sp, #44]
ffff00000008da4c:	b9402fe0 	ldr	w0, [sp, #44]
ffff00000008da50:	3100041f 	cmn	w0, #0x1
ffff00000008da54:	540000e1 	b.ne	ffff00000008da70 <dma_open_channel+0x40>  // b.any
ffff00000008da58:	b9401fe1 	ldr	w1, [sp, #28]
ffff00000008da5c:	b0000000 	adrp	x0, ffff00000008e000 <_fs_start+0x294>
ffff00000008da60:	913a6000 	add	x0, x0, #0xe98
ffff00000008da64:	97ffcb01 	bl	ffff000000080668 <printk>
ffff00000008da68:	d2800000 	mov	x0, #0x0                   	// #0
ffff00000008da6c:	14000047 	b	ffff00000008db88 <dma_open_channel+0x158>
ffff00000008da70:	b9402fe1 	ldr	w1, [sp, #44]
ffff00000008da74:	aa0103e0 	mov	x0, x1
ffff00000008da78:	d37ff800 	lsl	x0, x0, #1
ffff00000008da7c:	8b010000 	add	x0, x0, x1
ffff00000008da80:	d37df000 	lsl	x0, x0, #3
ffff00000008da84:	b0000061 	adrp	x1, ffff00000009a000 <property_data+0x7d50>
ffff00000008da88:	910ac021 	add	x1, x1, #0x2b0
ffff00000008da8c:	8b010000 	add	x0, x0, x1
ffff00000008da90:	f90013e0 	str	x0, [sp, #32]
ffff00000008da94:	f94013e0 	ldr	x0, [sp, #32]
ffff00000008da98:	b9402fe1 	ldr	w1, [sp, #44]
ffff00000008da9c:	b9000001 	str	w1, [x0]
ffff00000008daa0:	f94013e0 	ldr	x0, [sp, #32]
ffff00000008daa4:	d0000001 	adrp	x1, ffff00000008f000 <font_data+0xf68>
ffff00000008daa8:	f947c021 	ldr	x1, [x1, #3968]
ffff00000008daac:	f9000401 	str	x1, [x0, #8]
ffff00000008dab0:	f94013e0 	ldr	x0, [sp, #32]
ffff00000008dab4:	f9400400 	ldr	x0, [x0, #8]
ffff00000008dab8:	b900181f 	str	wzr, [x0, #24]
ffff00000008dabc:	f94013e0 	ldr	x0, [sp, #32]
ffff00000008dac0:	f9400400 	ldr	x0, [x0, #8]
ffff00000008dac4:	b9001c1f 	str	wzr, [x0, #28]
ffff00000008dac8:	d28ffe00 	mov	x0, #0x7ff0                	// #32752
ffff00000008dacc:	f2a7e000 	movk	x0, #0x3f00, lsl #16
ffff00000008dad0:	f2ffffe0 	movk	x0, #0xffff, lsl #48
ffff00000008dad4:	b9400001 	ldr	w1, [x0]
ffff00000008dad8:	f94013e0 	ldr	x0, [sp, #32]
ffff00000008dadc:	b9400000 	ldr	w0, [x0]
ffff00000008dae0:	52800022 	mov	w2, #0x1                   	// #1
ffff00000008dae4:	1ac02040 	lsl	w0, w2, w0
ffff00000008dae8:	2a0003e2 	mov	w2, w0
ffff00000008daec:	d28ffe00 	mov	x0, #0x7ff0                	// #32752
ffff00000008daf0:	f2a7e000 	movk	x0, #0x3f00, lsl #16
ffff00000008daf4:	f2ffffe0 	movk	x0, #0xffff, lsl #48
ffff00000008daf8:	2a020021 	orr	w1, w1, w2
ffff00000008dafc:	b9000001 	str	w1, [x0]
ffff00000008db00:	52817700 	mov	w0, #0xbb8                 	// #3000
ffff00000008db04:	97fffbc8 	bl	ffff00000008ca24 <wait_micro_sec>
ffff00000008db08:	f94013e0 	ldr	x0, [sp, #32]
ffff00000008db0c:	b9400000 	ldr	w0, [x0]
ffff00000008db10:	53185c00 	lsl	w0, w0, #8
ffff00000008db14:	2a0003e1 	mov	w1, w0
ffff00000008db18:	d28e0000 	mov	x0, #0x7000                	// #28672
ffff00000008db1c:	f2a7e000 	movk	x0, #0x3f00, lsl #16
ffff00000008db20:	f2ffffe0 	movk	x0, #0xffff, lsl #48
ffff00000008db24:	8b000020 	add	x0, x1, x0
ffff00000008db28:	b9400000 	ldr	w0, [x0]
ffff00000008db2c:	f94013e1 	ldr	x1, [sp, #32]
ffff00000008db30:	b9400021 	ldr	w1, [x1]
ffff00000008db34:	53185c21 	lsl	w1, w1, #8
ffff00000008db38:	2a0103e2 	mov	w2, w1
ffff00000008db3c:	d28e0001 	mov	x1, #0x7000                	// #28672
ffff00000008db40:	f2a7e001 	movk	x1, #0x3f00, lsl #16
ffff00000008db44:	f2ffffe1 	movk	x1, #0xffff, lsl #48
ffff00000008db48:	8b010041 	add	x1, x2, x1
ffff00000008db4c:	32010000 	orr	w0, w0, #0x80000000
ffff00000008db50:	b9000020 	str	w0, [x1]
ffff00000008db54:	d503201f 	nop
ffff00000008db58:	f94013e0 	ldr	x0, [sp, #32]
ffff00000008db5c:	b9400000 	ldr	w0, [x0]
ffff00000008db60:	53185c00 	lsl	w0, w0, #8
ffff00000008db64:	2a0003e1 	mov	w1, w0
ffff00000008db68:	d28e0000 	mov	x0, #0x7000                	// #28672
ffff00000008db6c:	f2a7e000 	movk	x0, #0x3f00, lsl #16
ffff00000008db70:	f2ffffe0 	movk	x0, #0xffff, lsl #48
ffff00000008db74:	8b000020 	add	x0, x1, x0
ffff00000008db78:	b9400000 	ldr	w0, [x0]
ffff00000008db7c:	7100001f 	cmp	w0, #0x0
ffff00000008db80:	54fffecb 	b.lt	ffff00000008db58 <dma_open_channel+0x128>  // b.tstop
ffff00000008db84:	f94013e0 	ldr	x0, [sp, #32]
ffff00000008db88:	a8c37bfd 	ldp	x29, x30, [sp], #48
ffff00000008db8c:	d65f03c0 	ret

ffff00000008db90 <dma_close_channel>:
ffff00000008db90:	d10043ff 	sub	sp, sp, #0x10
ffff00000008db94:	f90007e0 	str	x0, [sp, #8]
ffff00000008db98:	f94007e0 	ldr	x0, [sp, #8]
ffff00000008db9c:	b9400000 	ldr	w0, [x0]
ffff00000008dba0:	52800021 	mov	w1, #0x1                   	// #1
ffff00000008dba4:	1ac02020 	lsl	w0, w1, w0
ffff00000008dba8:	13003c01 	sxth	w1, w0
ffff00000008dbac:	d0000000 	adrp	x0, ffff00000008f000 <font_data+0xf68>
ffff00000008dbb0:	913da000 	add	x0, x0, #0xf68
ffff00000008dbb4:	79400000 	ldrh	w0, [x0]
ffff00000008dbb8:	13003c00 	sxth	w0, w0
ffff00000008dbbc:	2a000020 	orr	w0, w1, w0
ffff00000008dbc0:	13003c00 	sxth	w0, w0
ffff00000008dbc4:	12003c01 	and	w1, w0, #0xffff
ffff00000008dbc8:	d0000000 	adrp	x0, ffff00000008f000 <font_data+0xf68>
ffff00000008dbcc:	913da000 	add	x0, x0, #0xf68
ffff00000008dbd0:	79000001 	strh	w1, [x0]
ffff00000008dbd4:	d503201f 	nop
ffff00000008dbd8:	910043ff 	add	sp, sp, #0x10
ffff00000008dbdc:	d65f03c0 	ret

ffff00000008dbe0 <dma_setup_mem_copy>:
ffff00000008dbe0:	d10083ff 	sub	sp, sp, #0x20
ffff00000008dbe4:	f9000fe0 	str	x0, [sp, #24]
ffff00000008dbe8:	f9000be1 	str	x1, [sp, #16]
ffff00000008dbec:	f90007e2 	str	x2, [sp, #8]
ffff00000008dbf0:	b90007e3 	str	w3, [sp, #4]
ffff00000008dbf4:	b90003e4 	str	w4, [sp]
ffff00000008dbf8:	b94003e0 	ldr	w0, [sp]
ffff00000008dbfc:	53144c02 	lsl	w2, w0, #12
ffff00000008dc00:	f9400fe0 	ldr	x0, [sp, #24]
ffff00000008dc04:	f9400400 	ldr	x0, [x0, #8]
ffff00000008dc08:	52806601 	mov	w1, #0x330                 	// #816
ffff00000008dc0c:	2a010041 	orr	w1, w2, w1
ffff00000008dc10:	b9000001 	str	w1, [x0]
ffff00000008dc14:	f94007e1 	ldr	x1, [sp, #8]
ffff00000008dc18:	f9400fe0 	ldr	x0, [sp, #24]
ffff00000008dc1c:	f9400400 	ldr	x0, [x0, #8]
ffff00000008dc20:	b9000401 	str	w1, [x0, #4]
ffff00000008dc24:	f9400be1 	ldr	x1, [sp, #16]
ffff00000008dc28:	f9400fe0 	ldr	x0, [sp, #24]
ffff00000008dc2c:	f9400400 	ldr	x0, [x0, #8]
ffff00000008dc30:	b9000801 	str	w1, [x0, #8]
ffff00000008dc34:	f9400fe0 	ldr	x0, [sp, #24]
ffff00000008dc38:	f9400400 	ldr	x0, [x0, #8]
ffff00000008dc3c:	b94007e1 	ldr	w1, [sp, #4]
ffff00000008dc40:	b9000c01 	str	w1, [x0, #12]
ffff00000008dc44:	f9400fe0 	ldr	x0, [sp, #24]
ffff00000008dc48:	f9400400 	ldr	x0, [x0, #8]
ffff00000008dc4c:	b900101f 	str	wzr, [x0, #16]
ffff00000008dc50:	f9400fe0 	ldr	x0, [sp, #24]
ffff00000008dc54:	f9400400 	ldr	x0, [x0, #8]
ffff00000008dc58:	b900141f 	str	wzr, [x0, #20]
ffff00000008dc5c:	d503201f 	nop
ffff00000008dc60:	910083ff 	add	sp, sp, #0x20
ffff00000008dc64:	d65f03c0 	ret

ffff00000008dc68 <dma_start>:
ffff00000008dc68:	d10043ff 	sub	sp, sp, #0x10
ffff00000008dc6c:	f90007e0 	str	x0, [sp, #8]
ffff00000008dc70:	f94007e0 	ldr	x0, [sp, #8]
ffff00000008dc74:	f9400400 	ldr	x0, [x0, #8]
ffff00000008dc78:	2a0003e2 	mov	w2, w0
ffff00000008dc7c:	f94007e0 	ldr	x0, [sp, #8]
ffff00000008dc80:	b9400000 	ldr	w0, [x0]
ffff00000008dc84:	53185c00 	lsl	w0, w0, #8
ffff00000008dc88:	2a0003e1 	mov	w1, w0
ffff00000008dc8c:	d28e0000 	mov	x0, #0x7000                	// #28672
ffff00000008dc90:	f2a7e000 	movk	x0, #0x3f00, lsl #16
ffff00000008dc94:	f2ffffe0 	movk	x0, #0xffff, lsl #48
ffff00000008dc98:	8b000020 	add	x0, x1, x0
ffff00000008dc9c:	aa0003e1 	mov	x1, x0
ffff00000008dca0:	32020440 	orr	w0, w2, #0xc0000000
ffff00000008dca4:	b9000420 	str	w0, [x1, #4]
ffff00000008dca8:	f94007e0 	ldr	x0, [sp, #8]
ffff00000008dcac:	b9400000 	ldr	w0, [x0]
ffff00000008dcb0:	53185c00 	lsl	w0, w0, #8
ffff00000008dcb4:	2a0003e1 	mov	w1, w0
ffff00000008dcb8:	d28e0000 	mov	x0, #0x7000                	// #28672
ffff00000008dcbc:	f2a7e000 	movk	x0, #0x3f00, lsl #16
ffff00000008dcc0:	f2ffffe0 	movk	x0, #0xffff, lsl #48
ffff00000008dcc4:	8b000020 	add	x0, x1, x0
ffff00000008dcc8:	aa0003e1 	mov	x1, x0
ffff00000008dccc:	52800020 	mov	w0, #0x1                   	// #1
ffff00000008dcd0:	72a21e20 	movk	w0, #0x10f1, lsl #16
ffff00000008dcd4:	b9000020 	str	w0, [x1]
ffff00000008dcd8:	d503201f 	nop
ffff00000008dcdc:	910043ff 	add	sp, sp, #0x10
ffff00000008dce0:	d65f03c0 	ret

ffff00000008dce4 <dma_wait>:
ffff00000008dce4:	d10043ff 	sub	sp, sp, #0x10
ffff00000008dce8:	f90007e0 	str	x0, [sp, #8]
ffff00000008dcec:	d503201f 	nop
ffff00000008dcf0:	f94007e0 	ldr	x0, [sp, #8]
ffff00000008dcf4:	b9400000 	ldr	w0, [x0]
ffff00000008dcf8:	53185c00 	lsl	w0, w0, #8
ffff00000008dcfc:	2a0003e1 	mov	w1, w0
ffff00000008dd00:	d28e0000 	mov	x0, #0x7000                	// #28672
ffff00000008dd04:	f2a7e000 	movk	x0, #0x3f00, lsl #16
ffff00000008dd08:	f2ffffe0 	movk	x0, #0xffff, lsl #48
ffff00000008dd0c:	8b000020 	add	x0, x1, x0
ffff00000008dd10:	b9400000 	ldr	w0, [x0]
ffff00000008dd14:	12000000 	and	w0, w0, #0x1
ffff00000008dd18:	7100001f 	cmp	w0, #0x0
ffff00000008dd1c:	54fffea1 	b.ne	ffff00000008dcf0 <dma_wait+0xc>  // b.any
ffff00000008dd20:	f94007e0 	ldr	x0, [sp, #8]
ffff00000008dd24:	b9400000 	ldr	w0, [x0]
ffff00000008dd28:	53185c00 	lsl	w0, w0, #8
ffff00000008dd2c:	2a0003e1 	mov	w1, w0
ffff00000008dd30:	d28e0000 	mov	x0, #0x7000                	// #28672
ffff00000008dd34:	f2a7e000 	movk	x0, #0x3f00, lsl #16
ffff00000008dd38:	f2ffffe0 	movk	x0, #0xffff, lsl #48
ffff00000008dd3c:	8b000020 	add	x0, x1, x0
ffff00000008dd40:	b9400000 	ldr	w0, [x0]
ffff00000008dd44:	12180000 	and	w0, w0, #0x100
ffff00000008dd48:	7100001f 	cmp	w0, #0x0
ffff00000008dd4c:	1a9f17e0 	cset	w0, eq	// eq = none
ffff00000008dd50:	12001c01 	and	w1, w0, #0xff
ffff00000008dd54:	f94007e0 	ldr	x0, [sp, #8]
ffff00000008dd58:	39004001 	strb	w1, [x0, #16]
ffff00000008dd5c:	f94007e0 	ldr	x0, [sp, #8]
ffff00000008dd60:	39404000 	ldrb	w0, [x0, #16]
ffff00000008dd64:	910043ff 	add	sp, sp, #0x10
ffff00000008dd68:	d65f03c0 	ret
           8ffb0
            2248